ARM GAS  /tmp/ccepBsJ5.s 			page 1


   1              		.cpu cortex-m33
   2              		.arch armv8-m.main
   3              		.fpu fpv5-sp-d16
   4              		.arch_extension dsp
   5              		.eabi_attribute 27, 1
   6              		.eabi_attribute 28, 1
   7              		.eabi_attribute 20, 1
   8              		.eabi_attribute 21, 1
   9              		.eabi_attribute 23, 3
  10              		.eabi_attribute 24, 1
  11              		.eabi_attribute 25, 1
  12              		.eabi_attribute 26, 1
  13              		.eabi_attribute 30, 1
  14              		.eabi_attribute 34, 1
  15              		.eabi_attribute 18, 4
  16              		.file	"stm32u5xx_hal.c"
  17              		.text
  18              	.Ltext0:
  19              		.cfi_sections	.debug_frame
  20              		.file 1 "Drivers/STM32U5xx_HAL_Driver/Src/stm32u5xx_hal.c"
  21              		.section	.text.HAL_MspInit,"ax",%progbits
  22              		.align	1
  23              		.weak	HAL_MspInit
  24              		.syntax unified
  25              		.thumb
  26              		.thumb_func
  28              	HAL_MspInit:
  29              	.LFB159:
   1:Drivers/STM32U5xx_HAL_Driver/Src/stm32u5xx_hal.c **** /**
   2:Drivers/STM32U5xx_HAL_Driver/Src/stm32u5xx_hal.c ****   ******************************************************************************
   3:Drivers/STM32U5xx_HAL_Driver/Src/stm32u5xx_hal.c ****   * @file    stm32u5xx_hal.c
   4:Drivers/STM32U5xx_HAL_Driver/Src/stm32u5xx_hal.c ****   * @author  MCD Application Team
   5:Drivers/STM32U5xx_HAL_Driver/Src/stm32u5xx_hal.c ****   * @brief   HAL module driver.
   6:Drivers/STM32U5xx_HAL_Driver/Src/stm32u5xx_hal.c ****   *          This is the common part of the HAL initialization
   7:Drivers/STM32U5xx_HAL_Driver/Src/stm32u5xx_hal.c ****   *
   8:Drivers/STM32U5xx_HAL_Driver/Src/stm32u5xx_hal.c ****   ******************************************************************************
   9:Drivers/STM32U5xx_HAL_Driver/Src/stm32u5xx_hal.c ****   * @attention
  10:Drivers/STM32U5xx_HAL_Driver/Src/stm32u5xx_hal.c ****   *
  11:Drivers/STM32U5xx_HAL_Driver/Src/stm32u5xx_hal.c ****   * Copyright (c) 2021 STMicroelectronics.
  12:Drivers/STM32U5xx_HAL_Driver/Src/stm32u5xx_hal.c ****   * All rights reserved.
  13:Drivers/STM32U5xx_HAL_Driver/Src/stm32u5xx_hal.c ****   *
  14:Drivers/STM32U5xx_HAL_Driver/Src/stm32u5xx_hal.c ****   * This software is licensed under terms that can be found in the LICENSE file
  15:Drivers/STM32U5xx_HAL_Driver/Src/stm32u5xx_hal.c ****   * in the root directory of this software component.
  16:Drivers/STM32U5xx_HAL_Driver/Src/stm32u5xx_hal.c ****   * If no LICENSE file comes with this software, it is provided AS-IS.
  17:Drivers/STM32U5xx_HAL_Driver/Src/stm32u5xx_hal.c ****   *
  18:Drivers/STM32U5xx_HAL_Driver/Src/stm32u5xx_hal.c ****   ******************************************************************************
  19:Drivers/STM32U5xx_HAL_Driver/Src/stm32u5xx_hal.c ****   @verbatim
  20:Drivers/STM32U5xx_HAL_Driver/Src/stm32u5xx_hal.c ****   ==============================================================================
  21:Drivers/STM32U5xx_HAL_Driver/Src/stm32u5xx_hal.c ****                      ##### How to use this driver #####
  22:Drivers/STM32U5xx_HAL_Driver/Src/stm32u5xx_hal.c ****   ==============================================================================
  23:Drivers/STM32U5xx_HAL_Driver/Src/stm32u5xx_hal.c ****     [..]
  24:Drivers/STM32U5xx_HAL_Driver/Src/stm32u5xx_hal.c ****     The common HAL driver contains a set of generic and common APIs that can be
  25:Drivers/STM32U5xx_HAL_Driver/Src/stm32u5xx_hal.c ****     used by the PPP peripheral drivers and the user to start using the HAL.
  26:Drivers/STM32U5xx_HAL_Driver/Src/stm32u5xx_hal.c ****     [..]
  27:Drivers/STM32U5xx_HAL_Driver/Src/stm32u5xx_hal.c ****     The HAL contains two APIs' categories:
  28:Drivers/STM32U5xx_HAL_Driver/Src/stm32u5xx_hal.c ****          (+) Common HAL APIs
  29:Drivers/STM32U5xx_HAL_Driver/Src/stm32u5xx_hal.c ****          (+) Services HAL APIs
ARM GAS  /tmp/ccepBsJ5.s 			page 2


  30:Drivers/STM32U5xx_HAL_Driver/Src/stm32u5xx_hal.c **** 
  31:Drivers/STM32U5xx_HAL_Driver/Src/stm32u5xx_hal.c ****   @endverbatim
  32:Drivers/STM32U5xx_HAL_Driver/Src/stm32u5xx_hal.c ****   ******************************************************************************
  33:Drivers/STM32U5xx_HAL_Driver/Src/stm32u5xx_hal.c ****   */
  34:Drivers/STM32U5xx_HAL_Driver/Src/stm32u5xx_hal.c **** 
  35:Drivers/STM32U5xx_HAL_Driver/Src/stm32u5xx_hal.c **** /* Includes ------------------------------------------------------------------*/
  36:Drivers/STM32U5xx_HAL_Driver/Src/stm32u5xx_hal.c **** #include "stm32u5xx_hal.h"
  37:Drivers/STM32U5xx_HAL_Driver/Src/stm32u5xx_hal.c **** 
  38:Drivers/STM32U5xx_HAL_Driver/Src/stm32u5xx_hal.c **** /** @addtogroup STM32U5xx_HAL_Driver
  39:Drivers/STM32U5xx_HAL_Driver/Src/stm32u5xx_hal.c ****   * @{
  40:Drivers/STM32U5xx_HAL_Driver/Src/stm32u5xx_hal.c ****   */
  41:Drivers/STM32U5xx_HAL_Driver/Src/stm32u5xx_hal.c **** 
  42:Drivers/STM32U5xx_HAL_Driver/Src/stm32u5xx_hal.c **** /** @defgroup HAL HAL
  43:Drivers/STM32U5xx_HAL_Driver/Src/stm32u5xx_hal.c ****   * @brief HAL module driver
  44:Drivers/STM32U5xx_HAL_Driver/Src/stm32u5xx_hal.c ****   * @{
  45:Drivers/STM32U5xx_HAL_Driver/Src/stm32u5xx_hal.c ****   */
  46:Drivers/STM32U5xx_HAL_Driver/Src/stm32u5xx_hal.c **** 
  47:Drivers/STM32U5xx_HAL_Driver/Src/stm32u5xx_hal.c **** #ifdef HAL_MODULE_ENABLED
  48:Drivers/STM32U5xx_HAL_Driver/Src/stm32u5xx_hal.c **** 
  49:Drivers/STM32U5xx_HAL_Driver/Src/stm32u5xx_hal.c **** /* Private typedef -----------------------------------------------------------*/
  50:Drivers/STM32U5xx_HAL_Driver/Src/stm32u5xx_hal.c **** /* Private define ------------------------------------------------------------*/
  51:Drivers/STM32U5xx_HAL_Driver/Src/stm32u5xx_hal.c **** /** @defgroup HAL_Private_Defines HAL Private Defines
  52:Drivers/STM32U5xx_HAL_Driver/Src/stm32u5xx_hal.c ****   * @{
  53:Drivers/STM32U5xx_HAL_Driver/Src/stm32u5xx_hal.c ****   */
  54:Drivers/STM32U5xx_HAL_Driver/Src/stm32u5xx_hal.c **** /**
  55:Drivers/STM32U5xx_HAL_Driver/Src/stm32u5xx_hal.c ****   * @brief STM32U5xx HAL Driver version number 1.6.2
  56:Drivers/STM32U5xx_HAL_Driver/Src/stm32u5xx_hal.c ****    */
  57:Drivers/STM32U5xx_HAL_Driver/Src/stm32u5xx_hal.c **** #define __STM32U5xx_HAL_VERSION_MAIN   (0x01UL) /*!< [31:24] main version */
  58:Drivers/STM32U5xx_HAL_Driver/Src/stm32u5xx_hal.c **** #define __STM32U5xx_HAL_VERSION_SUB1   (0x06UL) /*!< [23:16] sub1 version */
  59:Drivers/STM32U5xx_HAL_Driver/Src/stm32u5xx_hal.c **** #define __STM32U5xx_HAL_VERSION_SUB2   (0x02UL) /*!< [15:8]  sub2 version */
  60:Drivers/STM32U5xx_HAL_Driver/Src/stm32u5xx_hal.c **** #define __STM32U5xx_HAL_VERSION_RC     (0x00UL) /*!< [7:0]  release candidate */
  61:Drivers/STM32U5xx_HAL_Driver/Src/stm32u5xx_hal.c **** #define __STM32U5xx_HAL_VERSION         ((__STM32U5xx_HAL_VERSION_MAIN << 24U)\
  62:Drivers/STM32U5xx_HAL_Driver/Src/stm32u5xx_hal.c ****                                          |(__STM32U5xx_HAL_VERSION_SUB1 << 16U)\
  63:Drivers/STM32U5xx_HAL_Driver/Src/stm32u5xx_hal.c ****                                          |(__STM32U5xx_HAL_VERSION_SUB2 << 8U )\
  64:Drivers/STM32U5xx_HAL_Driver/Src/stm32u5xx_hal.c ****                                          |(__STM32U5xx_HAL_VERSION_RC))
  65:Drivers/STM32U5xx_HAL_Driver/Src/stm32u5xx_hal.c **** 
  66:Drivers/STM32U5xx_HAL_Driver/Src/stm32u5xx_hal.c **** #define VREFBUF_TIMEOUT_VALUE           10U   /* 10 ms (to be confirmed) */
  67:Drivers/STM32U5xx_HAL_Driver/Src/stm32u5xx_hal.c **** /**
  68:Drivers/STM32U5xx_HAL_Driver/Src/stm32u5xx_hal.c ****   * @}
  69:Drivers/STM32U5xx_HAL_Driver/Src/stm32u5xx_hal.c ****   */
  70:Drivers/STM32U5xx_HAL_Driver/Src/stm32u5xx_hal.c **** /* Private macro -------------------------------------------------------------*/
  71:Drivers/STM32U5xx_HAL_Driver/Src/stm32u5xx_hal.c **** /* Private variables ---------------------------------------------------------*/
  72:Drivers/STM32U5xx_HAL_Driver/Src/stm32u5xx_hal.c **** /* Exported variables --------------------------------------------------------*/
  73:Drivers/STM32U5xx_HAL_Driver/Src/stm32u5xx_hal.c **** 
  74:Drivers/STM32U5xx_HAL_Driver/Src/stm32u5xx_hal.c **** /** @defgroup HAL_Exported_Variables HAL Exported Variables
  75:Drivers/STM32U5xx_HAL_Driver/Src/stm32u5xx_hal.c ****   * @{
  76:Drivers/STM32U5xx_HAL_Driver/Src/stm32u5xx_hal.c ****   */
  77:Drivers/STM32U5xx_HAL_Driver/Src/stm32u5xx_hal.c **** __IO uint32_t uwTick;
  78:Drivers/STM32U5xx_HAL_Driver/Src/stm32u5xx_hal.c **** uint32_t uwTickPrio   = (1UL << __NVIC_PRIO_BITS); /* Invalid PRIO */
  79:Drivers/STM32U5xx_HAL_Driver/Src/stm32u5xx_hal.c **** HAL_TickFreqTypeDef uwTickFreq = HAL_TICK_FREQ_DEFAULT;  /* 1KHz */
  80:Drivers/STM32U5xx_HAL_Driver/Src/stm32u5xx_hal.c **** /**
  81:Drivers/STM32U5xx_HAL_Driver/Src/stm32u5xx_hal.c ****   * @}
  82:Drivers/STM32U5xx_HAL_Driver/Src/stm32u5xx_hal.c ****   */
  83:Drivers/STM32U5xx_HAL_Driver/Src/stm32u5xx_hal.c **** 
  84:Drivers/STM32U5xx_HAL_Driver/Src/stm32u5xx_hal.c **** /* Private function prototypes -----------------------------------------------*/
  85:Drivers/STM32U5xx_HAL_Driver/Src/stm32u5xx_hal.c **** /* Exported functions --------------------------------------------------------*/
  86:Drivers/STM32U5xx_HAL_Driver/Src/stm32u5xx_hal.c **** 
ARM GAS  /tmp/ccepBsJ5.s 			page 3


  87:Drivers/STM32U5xx_HAL_Driver/Src/stm32u5xx_hal.c **** /** @defgroup HAL_Exported_Functions HAL Exported Functions
  88:Drivers/STM32U5xx_HAL_Driver/Src/stm32u5xx_hal.c ****   * @{
  89:Drivers/STM32U5xx_HAL_Driver/Src/stm32u5xx_hal.c ****   */
  90:Drivers/STM32U5xx_HAL_Driver/Src/stm32u5xx_hal.c **** 
  91:Drivers/STM32U5xx_HAL_Driver/Src/stm32u5xx_hal.c **** /** @defgroup HAL_Exported_Functions_Group1 HAL Initialization and de-initialization Functions
  92:Drivers/STM32U5xx_HAL_Driver/Src/stm32u5xx_hal.c ****   *  @brief    Initialization and de-initialization functions
  93:Drivers/STM32U5xx_HAL_Driver/Src/stm32u5xx_hal.c ****   *
  94:Drivers/STM32U5xx_HAL_Driver/Src/stm32u5xx_hal.c **** @verbatim
  95:Drivers/STM32U5xx_HAL_Driver/Src/stm32u5xx_hal.c ****  ===============================================================================
  96:Drivers/STM32U5xx_HAL_Driver/Src/stm32u5xx_hal.c ****               ##### Initialization and de-initialization functions #####
  97:Drivers/STM32U5xx_HAL_Driver/Src/stm32u5xx_hal.c ****  ===============================================================================
  98:Drivers/STM32U5xx_HAL_Driver/Src/stm32u5xx_hal.c ****     [..]  This section provides functions allowing to:
  99:Drivers/STM32U5xx_HAL_Driver/Src/stm32u5xx_hal.c ****       (+) Initializes the Flash interface the NVIC allocation and initial clock
 100:Drivers/STM32U5xx_HAL_Driver/Src/stm32u5xx_hal.c ****           configuration. It initializes the systick also when timeout is needed
 101:Drivers/STM32U5xx_HAL_Driver/Src/stm32u5xx_hal.c ****           and the backup domain when enabled.
 102:Drivers/STM32U5xx_HAL_Driver/Src/stm32u5xx_hal.c ****       (+) De-Initializes common part of the HAL.
 103:Drivers/STM32U5xx_HAL_Driver/Src/stm32u5xx_hal.c ****       (+) Configure The time base source to have 1ms time base with a dedicated
 104:Drivers/STM32U5xx_HAL_Driver/Src/stm32u5xx_hal.c ****           Tick interrupt priority.
 105:Drivers/STM32U5xx_HAL_Driver/Src/stm32u5xx_hal.c ****         (++) SysTick timer is used by default as source of time base, but user
 106:Drivers/STM32U5xx_HAL_Driver/Src/stm32u5xx_hal.c ****              can eventually implement his proper time base source (a general purpose
 107:Drivers/STM32U5xx_HAL_Driver/Src/stm32u5xx_hal.c ****              timer for example or other time source), keeping in mind that Time base
 108:Drivers/STM32U5xx_HAL_Driver/Src/stm32u5xx_hal.c ****              duration should be kept 1ms since PPP_TIMEOUT_VALUEs are defined and
 109:Drivers/STM32U5xx_HAL_Driver/Src/stm32u5xx_hal.c ****              handled in milliseconds basis.
 110:Drivers/STM32U5xx_HAL_Driver/Src/stm32u5xx_hal.c ****         (++) Time base configuration function (HAL_InitTick ()) is called automatically
 111:Drivers/STM32U5xx_HAL_Driver/Src/stm32u5xx_hal.c ****              at the beginning of the program after reset by HAL_Init() or at any time
 112:Drivers/STM32U5xx_HAL_Driver/Src/stm32u5xx_hal.c ****              when clock is configured, by HAL_RCC_ClockConfig().
 113:Drivers/STM32U5xx_HAL_Driver/Src/stm32u5xx_hal.c ****         (++) Source of time base is configured  to generate interrupts at regular
 114:Drivers/STM32U5xx_HAL_Driver/Src/stm32u5xx_hal.c ****              time intervals. Care must be taken if HAL_Delay() is called from a
 115:Drivers/STM32U5xx_HAL_Driver/Src/stm32u5xx_hal.c ****              peripheral ISR process, the Tick interrupt line must have higher priority
 116:Drivers/STM32U5xx_HAL_Driver/Src/stm32u5xx_hal.c ****             (numerically lower) than the peripheral interrupt. Otherwise the caller
 117:Drivers/STM32U5xx_HAL_Driver/Src/stm32u5xx_hal.c ****             ISR process will be blocked.
 118:Drivers/STM32U5xx_HAL_Driver/Src/stm32u5xx_hal.c ****        (++) functions affecting time base configurations are declared as __weak
 119:Drivers/STM32U5xx_HAL_Driver/Src/stm32u5xx_hal.c ****              to make  override possible  in case of other  implementations in user file.
 120:Drivers/STM32U5xx_HAL_Driver/Src/stm32u5xx_hal.c **** @endverbatim
 121:Drivers/STM32U5xx_HAL_Driver/Src/stm32u5xx_hal.c ****   * @{
 122:Drivers/STM32U5xx_HAL_Driver/Src/stm32u5xx_hal.c ****   */
 123:Drivers/STM32U5xx_HAL_Driver/Src/stm32u5xx_hal.c **** 
 124:Drivers/STM32U5xx_HAL_Driver/Src/stm32u5xx_hal.c **** /**
 125:Drivers/STM32U5xx_HAL_Driver/Src/stm32u5xx_hal.c ****   * @brief  Configure the Flash prefetch, the time base source, NVIC and any required global low
 126:Drivers/STM32U5xx_HAL_Driver/Src/stm32u5xx_hal.c ****   *         level hardware by calling the HAL_MspInit() callback function to be optionally defined
 127:Drivers/STM32U5xx_HAL_Driver/Src/stm32u5xx_hal.c ****   *         in user file stm32u5xx_hal_msp.c.
 128:Drivers/STM32U5xx_HAL_Driver/Src/stm32u5xx_hal.c ****   *
 129:Drivers/STM32U5xx_HAL_Driver/Src/stm32u5xx_hal.c ****   * @note   HAL_Init() function is called at the beginning of program after reset and before
 130:Drivers/STM32U5xx_HAL_Driver/Src/stm32u5xx_hal.c ****   *         the clock configuration.
 131:Drivers/STM32U5xx_HAL_Driver/Src/stm32u5xx_hal.c ****   *
 132:Drivers/STM32U5xx_HAL_Driver/Src/stm32u5xx_hal.c ****   * @note   In the default implementation the System Timer (SysTick) is used as source of time base
 133:Drivers/STM32U5xx_HAL_Driver/Src/stm32u5xx_hal.c ****   *         The SysTick configuration is based on MSI clock, as MSI is the clock
 134:Drivers/STM32U5xx_HAL_Driver/Src/stm32u5xx_hal.c ****   *         used after a system Reset and the NVIC configuration is set to Priority group 4.
 135:Drivers/STM32U5xx_HAL_Driver/Src/stm32u5xx_hal.c ****   *         Once done, time base tick starts incrementing: the tick variable counter is incremented
 136:Drivers/STM32U5xx_HAL_Driver/Src/stm32u5xx_hal.c ****   *         each 1ms in the SysTick_Handler() interrupt handler.
 137:Drivers/STM32U5xx_HAL_Driver/Src/stm32u5xx_hal.c ****   *
 138:Drivers/STM32U5xx_HAL_Driver/Src/stm32u5xx_hal.c ****   * @retval HAL status
 139:Drivers/STM32U5xx_HAL_Driver/Src/stm32u5xx_hal.c ****   */
 140:Drivers/STM32U5xx_HAL_Driver/Src/stm32u5xx_hal.c **** HAL_StatusTypeDef HAL_Init(void)
 141:Drivers/STM32U5xx_HAL_Driver/Src/stm32u5xx_hal.c **** {
 142:Drivers/STM32U5xx_HAL_Driver/Src/stm32u5xx_hal.c ****   /* Configure Flash prefetch */
 143:Drivers/STM32U5xx_HAL_Driver/Src/stm32u5xx_hal.c **** #if (PREFETCH_ENABLE != 0U)
ARM GAS  /tmp/ccepBsJ5.s 			page 4


 144:Drivers/STM32U5xx_HAL_Driver/Src/stm32u5xx_hal.c ****   __HAL_FLASH_PREFETCH_BUFFER_ENABLE();
 145:Drivers/STM32U5xx_HAL_Driver/Src/stm32u5xx_hal.c **** #endif /* PREFETCH_ENABLE */
 146:Drivers/STM32U5xx_HAL_Driver/Src/stm32u5xx_hal.c **** 
 147:Drivers/STM32U5xx_HAL_Driver/Src/stm32u5xx_hal.c ****   /* Set Interrupt Group Priority */
 148:Drivers/STM32U5xx_HAL_Driver/Src/stm32u5xx_hal.c ****   HAL_NVIC_SetPriorityGrouping(NVIC_PRIORITYGROUP_4);
 149:Drivers/STM32U5xx_HAL_Driver/Src/stm32u5xx_hal.c **** 
 150:Drivers/STM32U5xx_HAL_Driver/Src/stm32u5xx_hal.c ****   /* Update the SystemCoreClock global variable */
 151:Drivers/STM32U5xx_HAL_Driver/Src/stm32u5xx_hal.c ****   SystemCoreClock = HAL_RCC_GetSysClockFreq() >> AHBPrescTable[(RCC->CFGR2 & RCC_CFGR2_HPRE) >> RCC
 152:Drivers/STM32U5xx_HAL_Driver/Src/stm32u5xx_hal.c **** 
 153:Drivers/STM32U5xx_HAL_Driver/Src/stm32u5xx_hal.c ****   /* Select HCLK as SysTick clock source */
 154:Drivers/STM32U5xx_HAL_Driver/Src/stm32u5xx_hal.c ****   HAL_SYSTICK_CLKSourceConfig(SYSTICK_CLKSOURCE_HCLK);
 155:Drivers/STM32U5xx_HAL_Driver/Src/stm32u5xx_hal.c **** 
 156:Drivers/STM32U5xx_HAL_Driver/Src/stm32u5xx_hal.c ****   /* Use systick as time base source and configure 1ms tick (default clock after Reset is HSI) */
 157:Drivers/STM32U5xx_HAL_Driver/Src/stm32u5xx_hal.c ****   if (HAL_InitTick(TICK_INT_PRIORITY) != HAL_OK)
 158:Drivers/STM32U5xx_HAL_Driver/Src/stm32u5xx_hal.c ****   {
 159:Drivers/STM32U5xx_HAL_Driver/Src/stm32u5xx_hal.c ****     return HAL_ERROR;
 160:Drivers/STM32U5xx_HAL_Driver/Src/stm32u5xx_hal.c ****   }
 161:Drivers/STM32U5xx_HAL_Driver/Src/stm32u5xx_hal.c **** 
 162:Drivers/STM32U5xx_HAL_Driver/Src/stm32u5xx_hal.c ****   /* Init the low level hardware */
 163:Drivers/STM32U5xx_HAL_Driver/Src/stm32u5xx_hal.c ****   HAL_MspInit();
 164:Drivers/STM32U5xx_HAL_Driver/Src/stm32u5xx_hal.c **** 
 165:Drivers/STM32U5xx_HAL_Driver/Src/stm32u5xx_hal.c ****   /* Return function status */
 166:Drivers/STM32U5xx_HAL_Driver/Src/stm32u5xx_hal.c ****   return HAL_OK;
 167:Drivers/STM32U5xx_HAL_Driver/Src/stm32u5xx_hal.c **** }
 168:Drivers/STM32U5xx_HAL_Driver/Src/stm32u5xx_hal.c **** 
 169:Drivers/STM32U5xx_HAL_Driver/Src/stm32u5xx_hal.c **** /**
 170:Drivers/STM32U5xx_HAL_Driver/Src/stm32u5xx_hal.c ****   * @brief  This function de-Initializes common part of the HAL and stops the systick.
 171:Drivers/STM32U5xx_HAL_Driver/Src/stm32u5xx_hal.c ****   *         This function is optional.
 172:Drivers/STM32U5xx_HAL_Driver/Src/stm32u5xx_hal.c ****   * @retval HAL status
 173:Drivers/STM32U5xx_HAL_Driver/Src/stm32u5xx_hal.c ****   */
 174:Drivers/STM32U5xx_HAL_Driver/Src/stm32u5xx_hal.c **** HAL_StatusTypeDef HAL_DeInit(void)
 175:Drivers/STM32U5xx_HAL_Driver/Src/stm32u5xx_hal.c **** {
 176:Drivers/STM32U5xx_HAL_Driver/Src/stm32u5xx_hal.c ****   /* Reset of all peripherals */
 177:Drivers/STM32U5xx_HAL_Driver/Src/stm32u5xx_hal.c ****   __HAL_RCC_APB1_FORCE_RESET();
 178:Drivers/STM32U5xx_HAL_Driver/Src/stm32u5xx_hal.c ****   __HAL_RCC_APB1_RELEASE_RESET();
 179:Drivers/STM32U5xx_HAL_Driver/Src/stm32u5xx_hal.c **** 
 180:Drivers/STM32U5xx_HAL_Driver/Src/stm32u5xx_hal.c ****   __HAL_RCC_APB2_FORCE_RESET();
 181:Drivers/STM32U5xx_HAL_Driver/Src/stm32u5xx_hal.c ****   __HAL_RCC_APB2_RELEASE_RESET();
 182:Drivers/STM32U5xx_HAL_Driver/Src/stm32u5xx_hal.c **** 
 183:Drivers/STM32U5xx_HAL_Driver/Src/stm32u5xx_hal.c ****   __HAL_RCC_AHB1_FORCE_RESET();
 184:Drivers/STM32U5xx_HAL_Driver/Src/stm32u5xx_hal.c ****   __HAL_RCC_AHB1_RELEASE_RESET();
 185:Drivers/STM32U5xx_HAL_Driver/Src/stm32u5xx_hal.c **** 
 186:Drivers/STM32U5xx_HAL_Driver/Src/stm32u5xx_hal.c ****   __HAL_RCC_AHB2_FORCE_RESET();
 187:Drivers/STM32U5xx_HAL_Driver/Src/stm32u5xx_hal.c ****   __HAL_RCC_AHB2_RELEASE_RESET();
 188:Drivers/STM32U5xx_HAL_Driver/Src/stm32u5xx_hal.c **** 
 189:Drivers/STM32U5xx_HAL_Driver/Src/stm32u5xx_hal.c ****   __HAL_RCC_AHB3_FORCE_RESET();
 190:Drivers/STM32U5xx_HAL_Driver/Src/stm32u5xx_hal.c ****   __HAL_RCC_AHB3_RELEASE_RESET();
 191:Drivers/STM32U5xx_HAL_Driver/Src/stm32u5xx_hal.c **** 
 192:Drivers/STM32U5xx_HAL_Driver/Src/stm32u5xx_hal.c ****   /* De-Init the low level hardware */
 193:Drivers/STM32U5xx_HAL_Driver/Src/stm32u5xx_hal.c ****   HAL_MspDeInit();
 194:Drivers/STM32U5xx_HAL_Driver/Src/stm32u5xx_hal.c **** 
 195:Drivers/STM32U5xx_HAL_Driver/Src/stm32u5xx_hal.c ****   /* Return function status */
 196:Drivers/STM32U5xx_HAL_Driver/Src/stm32u5xx_hal.c ****   return HAL_OK;
 197:Drivers/STM32U5xx_HAL_Driver/Src/stm32u5xx_hal.c **** }
 198:Drivers/STM32U5xx_HAL_Driver/Src/stm32u5xx_hal.c **** 
 199:Drivers/STM32U5xx_HAL_Driver/Src/stm32u5xx_hal.c **** /**
 200:Drivers/STM32U5xx_HAL_Driver/Src/stm32u5xx_hal.c ****   * @brief  Initializes the MSP.
ARM GAS  /tmp/ccepBsJ5.s 			page 5


 201:Drivers/STM32U5xx_HAL_Driver/Src/stm32u5xx_hal.c ****   * @retval None
 202:Drivers/STM32U5xx_HAL_Driver/Src/stm32u5xx_hal.c ****   */
 203:Drivers/STM32U5xx_HAL_Driver/Src/stm32u5xx_hal.c **** __weak void HAL_MspInit(void)
 204:Drivers/STM32U5xx_HAL_Driver/Src/stm32u5xx_hal.c **** {
  30              		.loc 1 204 1 view -0
  31              		.cfi_startproc
  32              		@ args = 0, pretend = 0, frame = 0
  33              		@ frame_needed = 0, uses_anonymous_args = 0
  34              		@ link register save eliminated.
 205:Drivers/STM32U5xx_HAL_Driver/Src/stm32u5xx_hal.c ****   /* NOTE : This function Should not be modified, when the callback is needed,
 206:Drivers/STM32U5xx_HAL_Driver/Src/stm32u5xx_hal.c ****             the HAL_MspInit could be implemented in the user file
 207:Drivers/STM32U5xx_HAL_Driver/Src/stm32u5xx_hal.c ****    */
 208:Drivers/STM32U5xx_HAL_Driver/Src/stm32u5xx_hal.c **** }
  35              		.loc 1 208 1 view .LVU1
  36 0000 7047     		bx	lr
  37              		.cfi_endproc
  38              	.LFE159:
  40              		.section	.text.HAL_MspDeInit,"ax",%progbits
  41              		.align	1
  42              		.weak	HAL_MspDeInit
  43              		.syntax unified
  44              		.thumb
  45              		.thumb_func
  47              	HAL_MspDeInit:
  48              	.LFB160:
 209:Drivers/STM32U5xx_HAL_Driver/Src/stm32u5xx_hal.c **** 
 210:Drivers/STM32U5xx_HAL_Driver/Src/stm32u5xx_hal.c **** /**
 211:Drivers/STM32U5xx_HAL_Driver/Src/stm32u5xx_hal.c ****   * @brief  DeInitializes the MSP.
 212:Drivers/STM32U5xx_HAL_Driver/Src/stm32u5xx_hal.c ****   * @retval None
 213:Drivers/STM32U5xx_HAL_Driver/Src/stm32u5xx_hal.c ****   */
 214:Drivers/STM32U5xx_HAL_Driver/Src/stm32u5xx_hal.c **** __weak void HAL_MspDeInit(void)
 215:Drivers/STM32U5xx_HAL_Driver/Src/stm32u5xx_hal.c **** {
  49              		.loc 1 215 1 view -0
  50              		.cfi_startproc
  51              		@ args = 0, pretend = 0, frame = 0
  52              		@ frame_needed = 0, uses_anonymous_args = 0
  53              		@ link register save eliminated.
 216:Drivers/STM32U5xx_HAL_Driver/Src/stm32u5xx_hal.c ****   /* NOTE : This function Should not be modified, when the callback is needed,
 217:Drivers/STM32U5xx_HAL_Driver/Src/stm32u5xx_hal.c ****             the HAL_MspDeInit could be implemented in the user file
 218:Drivers/STM32U5xx_HAL_Driver/Src/stm32u5xx_hal.c ****    */
 219:Drivers/STM32U5xx_HAL_Driver/Src/stm32u5xx_hal.c **** }
  54              		.loc 1 219 1 view .LVU3
  55 0000 7047     		bx	lr
  56              		.cfi_endproc
  57              	.LFE160:
  59              		.section	.text.HAL_DeInit,"ax",%progbits
  60              		.align	1
  61              		.global	HAL_DeInit
  62              		.syntax unified
  63              		.thumb
  64              		.thumb_func
  66              	HAL_DeInit:
  67              	.LFB158:
 175:Drivers/STM32U5xx_HAL_Driver/Src/stm32u5xx_hal.c ****   /* Reset of all peripherals */
  68              		.loc 1 175 1 view -0
  69              		.cfi_startproc
  70              		@ args = 0, pretend = 0, frame = 0
ARM GAS  /tmp/ccepBsJ5.s 			page 6


  71              		@ frame_needed = 0, uses_anonymous_args = 0
  72 0000 10B5     		push	{r4, lr}
  73              	.LCFI0:
  74              		.cfi_def_cfa_offset 8
  75              		.cfi_offset 4, -8
  76              		.cfi_offset 14, -4
 177:Drivers/STM32U5xx_HAL_Driver/Src/stm32u5xx_hal.c ****   __HAL_RCC_APB1_RELEASE_RESET();
  77              		.loc 1 177 3 view .LVU5
 177:Drivers/STM32U5xx_HAL_Driver/Src/stm32u5xx_hal.c ****   __HAL_RCC_APB1_RELEASE_RESET();
  78              		.loc 1 177 3 view .LVU6
  79 0002 0E4B     		ldr	r3, .L5
  80 0004 0E4A     		ldr	r2, .L5+4
  81 0006 5A67     		str	r2, [r3, #116]
 177:Drivers/STM32U5xx_HAL_Driver/Src/stm32u5xx_hal.c ****   __HAL_RCC_APB1_RELEASE_RESET();
  82              		.loc 1 177 3 view .LVU7
  83 0008 0E4A     		ldr	r2, .L5+8
  84 000a 9A67     		str	r2, [r3, #120]
 177:Drivers/STM32U5xx_HAL_Driver/Src/stm32u5xx_hal.c ****   __HAL_RCC_APB1_RELEASE_RESET();
  85              		.loc 1 177 3 view .LVU8
 178:Drivers/STM32U5xx_HAL_Driver/Src/stm32u5xx_hal.c **** 
  86              		.loc 1 178 3 view .LVU9
 178:Drivers/STM32U5xx_HAL_Driver/Src/stm32u5xx_hal.c **** 
  87              		.loc 1 178 3 view .LVU10
  88 000c 0024     		movs	r4, #0
  89 000e 5C67     		str	r4, [r3, #116]
 178:Drivers/STM32U5xx_HAL_Driver/Src/stm32u5xx_hal.c **** 
  90              		.loc 1 178 3 view .LVU11
  91 0010 9C67     		str	r4, [r3, #120]
 178:Drivers/STM32U5xx_HAL_Driver/Src/stm32u5xx_hal.c **** 
  92              		.loc 1 178 3 view .LVU12
 180:Drivers/STM32U5xx_HAL_Driver/Src/stm32u5xx_hal.c ****   __HAL_RCC_APB2_RELEASE_RESET();
  93              		.loc 1 180 3 view .LVU13
  94 0012 0D4A     		ldr	r2, .L5+12
  95 0014 DA67     		str	r2, [r3, #124]
 181:Drivers/STM32U5xx_HAL_Driver/Src/stm32u5xx_hal.c **** 
  96              		.loc 1 181 3 view .LVU14
  97 0016 DC67     		str	r4, [r3, #124]
 183:Drivers/STM32U5xx_HAL_Driver/Src/stm32u5xx_hal.c ****   __HAL_RCC_AHB1_RELEASE_RESET();
  98              		.loc 1 183 3 view .LVU15
  99 0018 0C4A     		ldr	r2, .L5+16
 100 001a 1A66     		str	r2, [r3, #96]
 184:Drivers/STM32U5xx_HAL_Driver/Src/stm32u5xx_hal.c **** 
 101              		.loc 1 184 3 view .LVU16
 102 001c 1C66     		str	r4, [r3, #96]
 186:Drivers/STM32U5xx_HAL_Driver/Src/stm32u5xx_hal.c ****   __HAL_RCC_AHB2_RELEASE_RESET();
 103              		.loc 1 186 3 view .LVU17
 186:Drivers/STM32U5xx_HAL_Driver/Src/stm32u5xx_hal.c ****   __HAL_RCC_AHB2_RELEASE_RESET();
 104              		.loc 1 186 3 view .LVU18
 105 001e 0C4A     		ldr	r2, .L5+20
 106 0020 5A66     		str	r2, [r3, #100]
 186:Drivers/STM32U5xx_HAL_Driver/Src/stm32u5xx_hal.c ****   __HAL_RCC_AHB2_RELEASE_RESET();
 107              		.loc 1 186 3 view .LVU19
 108 0022 40F21112 		movw	r2, #273
 109 0026 9A66     		str	r2, [r3, #104]
 186:Drivers/STM32U5xx_HAL_Driver/Src/stm32u5xx_hal.c ****   __HAL_RCC_AHB2_RELEASE_RESET();
 110              		.loc 1 186 3 view .LVU20
 187:Drivers/STM32U5xx_HAL_Driver/Src/stm32u5xx_hal.c **** 
ARM GAS  /tmp/ccepBsJ5.s 			page 7


 111              		.loc 1 187 3 view .LVU21
 187:Drivers/STM32U5xx_HAL_Driver/Src/stm32u5xx_hal.c **** 
 112              		.loc 1 187 3 view .LVU22
 113 0028 5C66     		str	r4, [r3, #100]
 187:Drivers/STM32U5xx_HAL_Driver/Src/stm32u5xx_hal.c **** 
 114              		.loc 1 187 3 view .LVU23
 115 002a 9C66     		str	r4, [r3, #104]
 187:Drivers/STM32U5xx_HAL_Driver/Src/stm32u5xx_hal.c **** 
 116              		.loc 1 187 3 view .LVU24
 189:Drivers/STM32U5xx_HAL_Driver/Src/stm32u5xx_hal.c ****   __HAL_RCC_AHB3_RELEASE_RESET();
 117              		.loc 1 189 3 view .LVU25
 118 002c 40F26162 		movw	r2, #1633
 119 0030 DA66     		str	r2, [r3, #108]
 190:Drivers/STM32U5xx_HAL_Driver/Src/stm32u5xx_hal.c **** 
 120              		.loc 1 190 3 view .LVU26
 121 0032 DC66     		str	r4, [r3, #108]
 193:Drivers/STM32U5xx_HAL_Driver/Src/stm32u5xx_hal.c **** 
 122              		.loc 1 193 3 view .LVU27
 123 0034 FFF7FEFF 		bl	HAL_MspDeInit
 124              	.LVL0:
 196:Drivers/STM32U5xx_HAL_Driver/Src/stm32u5xx_hal.c **** }
 125              		.loc 1 196 3 view .LVU28
 197:Drivers/STM32U5xx_HAL_Driver/Src/stm32u5xx_hal.c **** 
 126              		.loc 1 197 1 is_stmt 0 view .LVU29
 127 0038 2046     		mov	r0, r4
 128 003a 10BD     		pop	{r4, pc}
 129              	.L6:
 130              		.align	2
 131              	.L5:
 132 003c 000C0246 		.word	1174539264
 133 0040 3F407E02 		.word	41828415
 134 0044 22028000 		.word	8389154
 135 0048 00786700 		.word	6780928
 136 004c 0F100700 		.word	462863
 137 0050 FF55BF19 		.word	431969791
 138              		.cfi_endproc
 139              	.LFE158:
 141              		.section	.text.HAL_InitTick,"ax",%progbits
 142              		.align	1
 143              		.weak	HAL_InitTick
 144              		.syntax unified
 145              		.thumb
 146              		.thumb_func
 148              	HAL_InitTick:
 149              	.LVL1:
 150              	.LFB161:
 220:Drivers/STM32U5xx_HAL_Driver/Src/stm32u5xx_hal.c **** 
 221:Drivers/STM32U5xx_HAL_Driver/Src/stm32u5xx_hal.c **** /**
 222:Drivers/STM32U5xx_HAL_Driver/Src/stm32u5xx_hal.c ****   * @brief This function configures the source of the time base.
 223:Drivers/STM32U5xx_HAL_Driver/Src/stm32u5xx_hal.c ****   *        The time source is configured to have 1ms time base with a dedicated
 224:Drivers/STM32U5xx_HAL_Driver/Src/stm32u5xx_hal.c ****   *        Tick interrupt priority.
 225:Drivers/STM32U5xx_HAL_Driver/Src/stm32u5xx_hal.c ****   * @note This function is called  automatically at the beginning of program after
 226:Drivers/STM32U5xx_HAL_Driver/Src/stm32u5xx_hal.c ****   *       reset by HAL_Init() or at any time when clock is reconfigured  by HAL_RCC_ClockConfig().
 227:Drivers/STM32U5xx_HAL_Driver/Src/stm32u5xx_hal.c ****   * @note In the default implementation, SysTick timer is the source of time base.
 228:Drivers/STM32U5xx_HAL_Driver/Src/stm32u5xx_hal.c ****   *       It is used to generate interrupts at regular time intervals.
 229:Drivers/STM32U5xx_HAL_Driver/Src/stm32u5xx_hal.c ****   *       Care must be taken if HAL_Delay() is called from a peripheral ISR process,
 230:Drivers/STM32U5xx_HAL_Driver/Src/stm32u5xx_hal.c ****   *       The SysTick interrupt must have higher priority (numerically lower)
ARM GAS  /tmp/ccepBsJ5.s 			page 8


 231:Drivers/STM32U5xx_HAL_Driver/Src/stm32u5xx_hal.c ****   *       than the peripheral interrupt. Otherwise the caller ISR process will be blocked.
 232:Drivers/STM32U5xx_HAL_Driver/Src/stm32u5xx_hal.c ****   *       The function is declared as __weak  to be overwritten  in case of other
 233:Drivers/STM32U5xx_HAL_Driver/Src/stm32u5xx_hal.c ****   *       implementation  in user file.
 234:Drivers/STM32U5xx_HAL_Driver/Src/stm32u5xx_hal.c ****   * @param TickPriority: Tick interrupt priority.
 235:Drivers/STM32U5xx_HAL_Driver/Src/stm32u5xx_hal.c ****   * @retval HAL status
 236:Drivers/STM32U5xx_HAL_Driver/Src/stm32u5xx_hal.c ****   */
 237:Drivers/STM32U5xx_HAL_Driver/Src/stm32u5xx_hal.c **** __weak HAL_StatusTypeDef HAL_InitTick(uint32_t TickPriority)
 238:Drivers/STM32U5xx_HAL_Driver/Src/stm32u5xx_hal.c **** {
 151              		.loc 1 238 1 is_stmt 1 view -0
 152              		.cfi_startproc
 153              		@ args = 0, pretend = 0, frame = 0
 154              		@ frame_needed = 0, uses_anonymous_args = 0
 155              		.loc 1 238 1 is_stmt 0 view .LVU31
 156 0000 38B5     		push	{r3, r4, r5, lr}
 157              	.LCFI1:
 158              		.cfi_def_cfa_offset 16
 159              		.cfi_offset 3, -16
 160              		.cfi_offset 4, -12
 161              		.cfi_offset 5, -8
 162              		.cfi_offset 14, -4
 239:Drivers/STM32U5xx_HAL_Driver/Src/stm32u5xx_hal.c ****   uint32_t ticknumber = 0U;
 163              		.loc 1 239 3 is_stmt 1 view .LVU32
 164              	.LVL2:
 240:Drivers/STM32U5xx_HAL_Driver/Src/stm32u5xx_hal.c ****   uint32_t systicksel;
 165              		.loc 1 240 3 view .LVU33
 241:Drivers/STM32U5xx_HAL_Driver/Src/stm32u5xx_hal.c **** 
 242:Drivers/STM32U5xx_HAL_Driver/Src/stm32u5xx_hal.c ****   /* Check uwTickFreq for MisraC 2012 (even if uwTickFreq is a enum type that don't take the value 
 243:Drivers/STM32U5xx_HAL_Driver/Src/stm32u5xx_hal.c ****   if ((uint32_t)uwTickFreq == 0UL)
 166              		.loc 1 243 3 view .LVU34
 167              		.loc 1 243 28 is_stmt 0 view .LVU35
 168 0002 274B     		ldr	r3, .L17
 169 0004 1A78     		ldrb	r2, [r3]	@ zero_extendqisi2
 170              		.loc 1 243 6 view .LVU36
 171 0006 002A     		cmp	r2, #0
 172 0008 47D0     		beq	.L13
 173 000a 0546     		mov	r5, r0
 244:Drivers/STM32U5xx_HAL_Driver/Src/stm32u5xx_hal.c ****   {
 245:Drivers/STM32U5xx_HAL_Driver/Src/stm32u5xx_hal.c ****     return HAL_ERROR;
 246:Drivers/STM32U5xx_HAL_Driver/Src/stm32u5xx_hal.c ****   }
 247:Drivers/STM32U5xx_HAL_Driver/Src/stm32u5xx_hal.c **** 
 248:Drivers/STM32U5xx_HAL_Driver/Src/stm32u5xx_hal.c ****   /* Check Clock source to calculate the tickNumber */
 249:Drivers/STM32U5xx_HAL_Driver/Src/stm32u5xx_hal.c ****   if (READ_BIT(SysTick->CTRL, SysTick_CTRL_CLKSOURCE_Msk) == SysTick_CTRL_CLKSOURCE_Msk)
 174              		.loc 1 249 3 is_stmt 1 view .LVU37
 175              		.loc 1 249 7 is_stmt 0 view .LVU38
 176 000c 4FF0E023 		mov	r3, #-536813568
 177 0010 1C69     		ldr	r4, [r3, #16]
 178              		.loc 1 249 6 view .LVU39
 179 0012 14F00404 		ands	r4, r4, #4
 180 0016 0DD0     		beq	.L9
 250:Drivers/STM32U5xx_HAL_Driver/Src/stm32u5xx_hal.c ****   {
 251:Drivers/STM32U5xx_HAL_Driver/Src/stm32u5xx_hal.c ****     /* HCLK selected as SysTick clock source */
 252:Drivers/STM32U5xx_HAL_Driver/Src/stm32u5xx_hal.c ****     ticknumber = SystemCoreClock / (1000UL / (uint32_t)uwTickFreq);
 181              		.loc 1 252 5 is_stmt 1 view .LVU40
 182              		.loc 1 252 34 is_stmt 0 view .LVU41
 183 0018 224B     		ldr	r3, .L17+4
 184 001a 1C68     		ldr	r4, [r3]
 185              		.loc 1 252 44 view .LVU42
ARM GAS  /tmp/ccepBsJ5.s 			page 9


 186 001c 4FF47A71 		mov	r1, #1000
 187 0020 B1FBF2F2 		udiv	r2, r1, r2
 188              		.loc 1 252 16 view .LVU43
 189 0024 B4FBF2F4 		udiv	r4, r4, r2
 190              	.LVL3:
 191              	.L10:
 253:Drivers/STM32U5xx_HAL_Driver/Src/stm32u5xx_hal.c ****   }
 254:Drivers/STM32U5xx_HAL_Driver/Src/stm32u5xx_hal.c ****   else
 255:Drivers/STM32U5xx_HAL_Driver/Src/stm32u5xx_hal.c ****   {
 256:Drivers/STM32U5xx_HAL_Driver/Src/stm32u5xx_hal.c ****     systicksel = HAL_SYSTICK_GetCLKSourceConfig();
 257:Drivers/STM32U5xx_HAL_Driver/Src/stm32u5xx_hal.c ****     switch (systicksel)
 258:Drivers/STM32U5xx_HAL_Driver/Src/stm32u5xx_hal.c ****     {
 259:Drivers/STM32U5xx_HAL_Driver/Src/stm32u5xx_hal.c ****       /* HCLK_DIV8 selected as SysTick clock source */
 260:Drivers/STM32U5xx_HAL_Driver/Src/stm32u5xx_hal.c ****       case SYSTICK_CLKSOURCE_HCLK_DIV8:
 261:Drivers/STM32U5xx_HAL_Driver/Src/stm32u5xx_hal.c ****         /* Calculate tick value */
 262:Drivers/STM32U5xx_HAL_Driver/Src/stm32u5xx_hal.c ****         ticknumber = (SystemCoreClock / (8000UL / (uint32_t)uwTickFreq));
 263:Drivers/STM32U5xx_HAL_Driver/Src/stm32u5xx_hal.c ****         break;
 264:Drivers/STM32U5xx_HAL_Driver/Src/stm32u5xx_hal.c ****       /* LSI selected as SysTick clock source */
 265:Drivers/STM32U5xx_HAL_Driver/Src/stm32u5xx_hal.c ****       case SYSTICK_CLKSOURCE_LSI:
 266:Drivers/STM32U5xx_HAL_Driver/Src/stm32u5xx_hal.c ****         /* Calculate tick value */
 267:Drivers/STM32U5xx_HAL_Driver/Src/stm32u5xx_hal.c ****         ticknumber = (LSI_VALUE / (1000UL / (uint32_t)uwTickFreq));
 268:Drivers/STM32U5xx_HAL_Driver/Src/stm32u5xx_hal.c ****         break;
 269:Drivers/STM32U5xx_HAL_Driver/Src/stm32u5xx_hal.c ****       /* LSE selected as SysTick clock source */
 270:Drivers/STM32U5xx_HAL_Driver/Src/stm32u5xx_hal.c ****       case SYSTICK_CLKSOURCE_LSE:
 271:Drivers/STM32U5xx_HAL_Driver/Src/stm32u5xx_hal.c ****         /* Calculate tick value */
 272:Drivers/STM32U5xx_HAL_Driver/Src/stm32u5xx_hal.c ****         ticknumber = (LSE_VALUE / (1000UL / (uint32_t)uwTickFreq));
 273:Drivers/STM32U5xx_HAL_Driver/Src/stm32u5xx_hal.c ****         break;
 274:Drivers/STM32U5xx_HAL_Driver/Src/stm32u5xx_hal.c ****       default:
 275:Drivers/STM32U5xx_HAL_Driver/Src/stm32u5xx_hal.c ****         /* Nothing to do */
 276:Drivers/STM32U5xx_HAL_Driver/Src/stm32u5xx_hal.c ****         break;
 277:Drivers/STM32U5xx_HAL_Driver/Src/stm32u5xx_hal.c ****     }
 278:Drivers/STM32U5xx_HAL_Driver/Src/stm32u5xx_hal.c ****   }
 279:Drivers/STM32U5xx_HAL_Driver/Src/stm32u5xx_hal.c **** 
 280:Drivers/STM32U5xx_HAL_Driver/Src/stm32u5xx_hal.c ****   /* Configure the SysTick to have interrupt in 1ms time basis*/
 281:Drivers/STM32U5xx_HAL_Driver/Src/stm32u5xx_hal.c ****   if (HAL_SYSTICK_Config(ticknumber) > 0U)
 192              		.loc 1 281 3 is_stmt 1 view .LVU44
 193              		.loc 1 281 7 is_stmt 0 view .LVU45
 194 0028 2046     		mov	r0, r4
 195 002a FFF7FEFF 		bl	HAL_SYSTICK_Config
 196              	.LVL4:
 197              		.loc 1 281 6 discriminator 1 view .LVU46
 198 002e 50B3     		cbz	r0, .L16
 282:Drivers/STM32U5xx_HAL_Driver/Src/stm32u5xx_hal.c ****   {
 283:Drivers/STM32U5xx_HAL_Driver/Src/stm32u5xx_hal.c ****     return HAL_ERROR;
 199              		.loc 1 283 12 view .LVU47
 200 0030 0120     		movs	r0, #1
 201 0032 33E0     		b	.L8
 202              	.LVL5:
 203              	.L9:
 256:Drivers/STM32U5xx_HAL_Driver/Src/stm32u5xx_hal.c ****     switch (systicksel)
 204              		.loc 1 256 5 is_stmt 1 view .LVU48
 256:Drivers/STM32U5xx_HAL_Driver/Src/stm32u5xx_hal.c ****     switch (systicksel)
 205              		.loc 1 256 18 is_stmt 0 view .LVU49
 206 0034 FFF7FEFF 		bl	HAL_SYSTICK_GetCLKSourceConfig
 207              	.LVL6:
 257:Drivers/STM32U5xx_HAL_Driver/Src/stm32u5xx_hal.c ****     {
 208              		.loc 1 257 5 is_stmt 1 view .LVU50
ARM GAS  /tmp/ccepBsJ5.s 			page 10


 209 0038 0128     		cmp	r0, #1
 210 003a 0ED0     		beq	.L11
 211 003c 0228     		cmp	r0, #2
 212 003e 17D0     		beq	.L12
 213 0040 0028     		cmp	r0, #0
 214 0042 F1D1     		bne	.L10
 262:Drivers/STM32U5xx_HAL_Driver/Src/stm32u5xx_hal.c ****         break;
 215              		.loc 1 262 9 view .LVU51
 262:Drivers/STM32U5xx_HAL_Driver/Src/stm32u5xx_hal.c ****         break;
 216              		.loc 1 262 39 is_stmt 0 view .LVU52
 217 0044 174B     		ldr	r3, .L17+4
 218 0046 1C68     		ldr	r4, [r3]
 262:Drivers/STM32U5xx_HAL_Driver/Src/stm32u5xx_hal.c ****         break;
 219              		.loc 1 262 51 view .LVU53
 220 0048 154A     		ldr	r2, .L17
 221 004a 1178     		ldrb	r1, [r2]	@ zero_extendqisi2
 262:Drivers/STM32U5xx_HAL_Driver/Src/stm32u5xx_hal.c ****         break;
 222              		.loc 1 262 49 view .LVU54
 223 004c 4FF4FA52 		mov	r2, #8000
 224 0050 B2FBF1F2 		udiv	r2, r2, r1
 262:Drivers/STM32U5xx_HAL_Driver/Src/stm32u5xx_hal.c ****         break;
 225              		.loc 1 262 20 view .LVU55
 226 0054 B4FBF2F4 		udiv	r4, r4, r2
 227              	.LVL7:
 263:Drivers/STM32U5xx_HAL_Driver/Src/stm32u5xx_hal.c ****       /* LSI selected as SysTick clock source */
 228              		.loc 1 263 9 is_stmt 1 view .LVU56
 229 0058 E6E7     		b	.L10
 230              	.LVL8:
 231              	.L11:
 267:Drivers/STM32U5xx_HAL_Driver/Src/stm32u5xx_hal.c ****         break;
 232              		.loc 1 267 9 view .LVU57
 267:Drivers/STM32U5xx_HAL_Driver/Src/stm32u5xx_hal.c ****         break;
 233              		.loc 1 267 45 is_stmt 0 view .LVU58
 234 005a 114B     		ldr	r3, .L17
 235 005c 1B78     		ldrb	r3, [r3]	@ zero_extendqisi2
 267:Drivers/STM32U5xx_HAL_Driver/Src/stm32u5xx_hal.c ****         break;
 236              		.loc 1 267 43 view .LVU59
 237 005e 4FF47A72 		mov	r2, #1000
 238 0062 B2FBF3F2 		udiv	r2, r2, r3
 267:Drivers/STM32U5xx_HAL_Driver/Src/stm32u5xx_hal.c ****         break;
 239              		.loc 1 267 20 view .LVU60
 240 0066 4FF4FA43 		mov	r3, #32000
 241 006a B3FBF2F4 		udiv	r4, r3, r2
 242              	.LVL9:
 268:Drivers/STM32U5xx_HAL_Driver/Src/stm32u5xx_hal.c ****       /* LSE selected as SysTick clock source */
 243              		.loc 1 268 9 is_stmt 1 view .LVU61
 244 006e DBE7     		b	.L10
 245              	.LVL10:
 246              	.L12:
 272:Drivers/STM32U5xx_HAL_Driver/Src/stm32u5xx_hal.c ****         break;
 247              		.loc 1 272 9 view .LVU62
 272:Drivers/STM32U5xx_HAL_Driver/Src/stm32u5xx_hal.c ****         break;
 248              		.loc 1 272 45 is_stmt 0 view .LVU63
 249 0070 0B4B     		ldr	r3, .L17
 250 0072 1B78     		ldrb	r3, [r3]	@ zero_extendqisi2
 272:Drivers/STM32U5xx_HAL_Driver/Src/stm32u5xx_hal.c ****         break;
 251              		.loc 1 272 43 view .LVU64
ARM GAS  /tmp/ccepBsJ5.s 			page 11


 252 0074 4FF47A72 		mov	r2, #1000
 253 0078 B2FBF3F2 		udiv	r2, r2, r3
 272:Drivers/STM32U5xx_HAL_Driver/Src/stm32u5xx_hal.c ****         break;
 254              		.loc 1 272 20 view .LVU65
 255 007c 4FF40043 		mov	r3, #32768
 256 0080 B3FBF2F4 		udiv	r4, r3, r2
 257              	.LVL11:
 273:Drivers/STM32U5xx_HAL_Driver/Src/stm32u5xx_hal.c ****       default:
 258              		.loc 1 273 9 is_stmt 1 view .LVU66
 259 0084 D0E7     		b	.L10
 260              	.LVL12:
 261              	.L16:
 284:Drivers/STM32U5xx_HAL_Driver/Src/stm32u5xx_hal.c ****   }
 285:Drivers/STM32U5xx_HAL_Driver/Src/stm32u5xx_hal.c **** 
 286:Drivers/STM32U5xx_HAL_Driver/Src/stm32u5xx_hal.c ****   /* Configure the SysTick IRQ priority */
 287:Drivers/STM32U5xx_HAL_Driver/Src/stm32u5xx_hal.c ****   HAL_NVIC_SetPriority(SysTick_IRQn, TickPriority, 0U);
 262              		.loc 1 287 3 view .LVU67
 263 0086 0022     		movs	r2, #0
 264 0088 2946     		mov	r1, r5
 265 008a 4FF0FF30 		mov	r0, #-1
 266 008e FFF7FEFF 		bl	HAL_NVIC_SetPriority
 267              	.LVL13:
 288:Drivers/STM32U5xx_HAL_Driver/Src/stm32u5xx_hal.c ****   uwTickPrio = TickPriority;
 268              		.loc 1 288 3 view .LVU68
 269              		.loc 1 288 14 is_stmt 0 view .LVU69
 270 0092 054B     		ldr	r3, .L17+8
 271 0094 1D60     		str	r5, [r3]
 289:Drivers/STM32U5xx_HAL_Driver/Src/stm32u5xx_hal.c **** 
 290:Drivers/STM32U5xx_HAL_Driver/Src/stm32u5xx_hal.c ****   /* Return function status */
 291:Drivers/STM32U5xx_HAL_Driver/Src/stm32u5xx_hal.c ****   return HAL_OK;
 272              		.loc 1 291 3 is_stmt 1 view .LVU70
 273              		.loc 1 291 10 is_stmt 0 view .LVU71
 274 0096 0020     		movs	r0, #0
 275 0098 00E0     		b	.L8
 276              	.LVL14:
 277              	.L13:
 245:Drivers/STM32U5xx_HAL_Driver/Src/stm32u5xx_hal.c ****   }
 278              		.loc 1 245 12 view .LVU72
 279 009a 0120     		movs	r0, #1
 280              	.LVL15:
 281              	.L8:
 292:Drivers/STM32U5xx_HAL_Driver/Src/stm32u5xx_hal.c **** }
 282              		.loc 1 292 1 view .LVU73
 283 009c 38BD     		pop	{r3, r4, r5, pc}
 284              	.L18:
 285 009e 00BF     		.align	2
 286              	.L17:
 287 00a0 00000000 		.word	uwTickFreq
 288 00a4 00000000 		.word	SystemCoreClock
 289 00a8 00000000 		.word	uwTickPrio
 290              		.cfi_endproc
 291              	.LFE161:
 293              		.section	.text.HAL_Init,"ax",%progbits
 294              		.align	1
 295              		.global	HAL_Init
 296              		.syntax unified
 297              		.thumb
ARM GAS  /tmp/ccepBsJ5.s 			page 12


 298              		.thumb_func
 300              	HAL_Init:
 301              	.LFB157:
 141:Drivers/STM32U5xx_HAL_Driver/Src/stm32u5xx_hal.c ****   /* Configure Flash prefetch */
 302              		.loc 1 141 1 is_stmt 1 view -0
 303              		.cfi_startproc
 304              		@ args = 0, pretend = 0, frame = 0
 305              		@ frame_needed = 0, uses_anonymous_args = 0
 306 0000 10B5     		push	{r4, lr}
 307              	.LCFI2:
 308              		.cfi_def_cfa_offset 8
 309              		.cfi_offset 4, -8
 310              		.cfi_offset 14, -4
 144:Drivers/STM32U5xx_HAL_Driver/Src/stm32u5xx_hal.c **** #endif /* PREFETCH_ENABLE */
 311              		.loc 1 144 3 view .LVU75
 312 0002 104A     		ldr	r2, .L24
 313 0004 1368     		ldr	r3, [r2]
 314 0006 43F48073 		orr	r3, r3, #256
 315 000a 1360     		str	r3, [r2]
 148:Drivers/STM32U5xx_HAL_Driver/Src/stm32u5xx_hal.c **** 
 316              		.loc 1 148 3 view .LVU76
 317 000c 0320     		movs	r0, #3
 318 000e FFF7FEFF 		bl	HAL_NVIC_SetPriorityGrouping
 319              	.LVL16:
 151:Drivers/STM32U5xx_HAL_Driver/Src/stm32u5xx_hal.c **** 
 320              		.loc 1 151 3 view .LVU77
 151:Drivers/STM32U5xx_HAL_Driver/Src/stm32u5xx_hal.c **** 
 321              		.loc 1 151 21 is_stmt 0 view .LVU78
 322 0012 FFF7FEFF 		bl	HAL_RCC_GetSysClockFreq
 323              	.LVL17:
 151:Drivers/STM32U5xx_HAL_Driver/Src/stm32u5xx_hal.c **** 
 324              		.loc 1 151 68 discriminator 1 view .LVU79
 325 0016 0C4B     		ldr	r3, .L24+4
 326 0018 1B6A     		ldr	r3, [r3, #32]
 151:Drivers/STM32U5xx_HAL_Driver/Src/stm32u5xx_hal.c **** 
 327              		.loc 1 151 94 discriminator 1 view .LVU80
 328 001a 03F00F03 		and	r3, r3, #15
 151:Drivers/STM32U5xx_HAL_Driver/Src/stm32u5xx_hal.c **** 
 329              		.loc 1 151 63 discriminator 1 view .LVU81
 330 001e 0B4A     		ldr	r2, .L24+8
 331 0020 D35C     		ldrb	r3, [r2, r3]	@ zero_extendqisi2
 151:Drivers/STM32U5xx_HAL_Driver/Src/stm32u5xx_hal.c **** 
 332              		.loc 1 151 47 discriminator 1 view .LVU82
 333 0022 D840     		lsrs	r0, r0, r3
 151:Drivers/STM32U5xx_HAL_Driver/Src/stm32u5xx_hal.c **** 
 334              		.loc 1 151 19 discriminator 1 view .LVU83
 335 0024 0A4B     		ldr	r3, .L24+12
 336 0026 1860     		str	r0, [r3]
 154:Drivers/STM32U5xx_HAL_Driver/Src/stm32u5xx_hal.c **** 
 337              		.loc 1 154 3 is_stmt 1 view .LVU84
 338 0028 0420     		movs	r0, #4
 339 002a FFF7FEFF 		bl	HAL_SYSTICK_CLKSourceConfig
 340              	.LVL18:
 157:Drivers/STM32U5xx_HAL_Driver/Src/stm32u5xx_hal.c ****   {
 341              		.loc 1 157 3 view .LVU85
 157:Drivers/STM32U5xx_HAL_Driver/Src/stm32u5xx_hal.c ****   {
 342              		.loc 1 157 7 is_stmt 0 view .LVU86
ARM GAS  /tmp/ccepBsJ5.s 			page 13


 343 002e 0F20     		movs	r0, #15
 344 0030 FFF7FEFF 		bl	HAL_InitTick
 345              	.LVL19:
 157:Drivers/STM32U5xx_HAL_Driver/Src/stm32u5xx_hal.c ****   {
 346              		.loc 1 157 6 discriminator 1 view .LVU87
 347 0034 10B1     		cbz	r0, .L23
 159:Drivers/STM32U5xx_HAL_Driver/Src/stm32u5xx_hal.c ****   }
 348              		.loc 1 159 12 view .LVU88
 349 0036 0124     		movs	r4, #1
 350              	.L20:
 167:Drivers/STM32U5xx_HAL_Driver/Src/stm32u5xx_hal.c **** 
 351              		.loc 1 167 1 view .LVU89
 352 0038 2046     		mov	r0, r4
 353 003a 10BD     		pop	{r4, pc}
 354              	.L23:
 355 003c 0446     		mov	r4, r0
 163:Drivers/STM32U5xx_HAL_Driver/Src/stm32u5xx_hal.c **** 
 356              		.loc 1 163 3 is_stmt 1 view .LVU90
 357 003e FFF7FEFF 		bl	HAL_MspInit
 358              	.LVL20:
 166:Drivers/STM32U5xx_HAL_Driver/Src/stm32u5xx_hal.c **** }
 359              		.loc 1 166 3 view .LVU91
 166:Drivers/STM32U5xx_HAL_Driver/Src/stm32u5xx_hal.c **** }
 360              		.loc 1 166 10 is_stmt 0 view .LVU92
 361 0042 F9E7     		b	.L20
 362              	.L25:
 363              		.align	2
 364              	.L24:
 365 0044 00200240 		.word	1073881088
 366 0048 000C0246 		.word	1174539264
 367 004c 00000000 		.word	AHBPrescTable
 368 0050 00000000 		.word	SystemCoreClock
 369              		.cfi_endproc
 370              	.LFE157:
 372              		.section	.text.HAL_IncTick,"ax",%progbits
 373              		.align	1
 374              		.weak	HAL_IncTick
 375              		.syntax unified
 376              		.thumb
 377              		.thumb_func
 379              	HAL_IncTick:
 380              	.LFB162:
 293:Drivers/STM32U5xx_HAL_Driver/Src/stm32u5xx_hal.c **** 
 294:Drivers/STM32U5xx_HAL_Driver/Src/stm32u5xx_hal.c **** /**
 295:Drivers/STM32U5xx_HAL_Driver/Src/stm32u5xx_hal.c ****   * @}
 296:Drivers/STM32U5xx_HAL_Driver/Src/stm32u5xx_hal.c ****   */
 297:Drivers/STM32U5xx_HAL_Driver/Src/stm32u5xx_hal.c **** 
 298:Drivers/STM32U5xx_HAL_Driver/Src/stm32u5xx_hal.c **** /** @defgroup HAL_Exported_Functions_Group2 HAL Control functions
 299:Drivers/STM32U5xx_HAL_Driver/Src/stm32u5xx_hal.c ****   *  @brief    HAL Control functions
 300:Drivers/STM32U5xx_HAL_Driver/Src/stm32u5xx_hal.c ****   *
 301:Drivers/STM32U5xx_HAL_Driver/Src/stm32u5xx_hal.c **** @verbatim
 302:Drivers/STM32U5xx_HAL_Driver/Src/stm32u5xx_hal.c ****  ===============================================================================
 303:Drivers/STM32U5xx_HAL_Driver/Src/stm32u5xx_hal.c ****                       ##### HAL Control functions #####
 304:Drivers/STM32U5xx_HAL_Driver/Src/stm32u5xx_hal.c ****  ===============================================================================
 305:Drivers/STM32U5xx_HAL_Driver/Src/stm32u5xx_hal.c ****     [..]  This section provides functions allowing to:
 306:Drivers/STM32U5xx_HAL_Driver/Src/stm32u5xx_hal.c ****       (+) Provide a tick value in millisecond
 307:Drivers/STM32U5xx_HAL_Driver/Src/stm32u5xx_hal.c ****       (+) Provide a blocking delay in millisecond
ARM GAS  /tmp/ccepBsJ5.s 			page 14


 308:Drivers/STM32U5xx_HAL_Driver/Src/stm32u5xx_hal.c ****       (+) Suspend the time base source interrupt
 309:Drivers/STM32U5xx_HAL_Driver/Src/stm32u5xx_hal.c ****       (+) Resume the time base source interrupt
 310:Drivers/STM32U5xx_HAL_Driver/Src/stm32u5xx_hal.c ****       (+) Get the HAL API driver version
 311:Drivers/STM32U5xx_HAL_Driver/Src/stm32u5xx_hal.c ****       (+) Get the device identifier
 312:Drivers/STM32U5xx_HAL_Driver/Src/stm32u5xx_hal.c ****       (+) Get the device revision identifier
 313:Drivers/STM32U5xx_HAL_Driver/Src/stm32u5xx_hal.c ****       (+) Enable/Disable Debug module during SLEEP mode
 314:Drivers/STM32U5xx_HAL_Driver/Src/stm32u5xx_hal.c ****       (+) Enable/Disable Debug module during STOP mode
 315:Drivers/STM32U5xx_HAL_Driver/Src/stm32u5xx_hal.c ****       (+) Enable/Disable Debug module during STANDBY mode
 316:Drivers/STM32U5xx_HAL_Driver/Src/stm32u5xx_hal.c **** 
 317:Drivers/STM32U5xx_HAL_Driver/Src/stm32u5xx_hal.c **** @endverbatim
 318:Drivers/STM32U5xx_HAL_Driver/Src/stm32u5xx_hal.c ****   * @{
 319:Drivers/STM32U5xx_HAL_Driver/Src/stm32u5xx_hal.c ****   */
 320:Drivers/STM32U5xx_HAL_Driver/Src/stm32u5xx_hal.c **** 
 321:Drivers/STM32U5xx_HAL_Driver/Src/stm32u5xx_hal.c **** /**
 322:Drivers/STM32U5xx_HAL_Driver/Src/stm32u5xx_hal.c ****   * @brief This function is called to increment a global variable "uwTick"
 323:Drivers/STM32U5xx_HAL_Driver/Src/stm32u5xx_hal.c ****   *        used as application time base.
 324:Drivers/STM32U5xx_HAL_Driver/Src/stm32u5xx_hal.c ****   * @note In the default implementation, this variable is incremented each 1ms
 325:Drivers/STM32U5xx_HAL_Driver/Src/stm32u5xx_hal.c ****   *       in SysTick ISR.
 326:Drivers/STM32U5xx_HAL_Driver/Src/stm32u5xx_hal.c ****   * @note This function is declared as __weak to be overwritten in case of other
 327:Drivers/STM32U5xx_HAL_Driver/Src/stm32u5xx_hal.c ****   *      implementations in user file.
 328:Drivers/STM32U5xx_HAL_Driver/Src/stm32u5xx_hal.c ****   * @retval None
 329:Drivers/STM32U5xx_HAL_Driver/Src/stm32u5xx_hal.c ****   */
 330:Drivers/STM32U5xx_HAL_Driver/Src/stm32u5xx_hal.c **** __weak void HAL_IncTick(void)
 331:Drivers/STM32U5xx_HAL_Driver/Src/stm32u5xx_hal.c **** {
 381              		.loc 1 331 1 is_stmt 1 view -0
 382              		.cfi_startproc
 383              		@ args = 0, pretend = 0, frame = 0
 384              		@ frame_needed = 0, uses_anonymous_args = 0
 385              		@ link register save eliminated.
 332:Drivers/STM32U5xx_HAL_Driver/Src/stm32u5xx_hal.c ****   uwTick += (uint32_t)uwTickFreq;
 386              		.loc 1 332 3 view .LVU94
 387              		.loc 1 332 13 is_stmt 0 view .LVU95
 388 0000 034B     		ldr	r3, .L27
 389 0002 1B78     		ldrb	r3, [r3]	@ zero_extendqisi2
 390              		.loc 1 332 10 view .LVU96
 391 0004 034A     		ldr	r2, .L27+4
 392 0006 1168     		ldr	r1, [r2]
 393 0008 0B44     		add	r3, r3, r1
 394 000a 1360     		str	r3, [r2]
 333:Drivers/STM32U5xx_HAL_Driver/Src/stm32u5xx_hal.c **** }
 395              		.loc 1 333 1 view .LVU97
 396 000c 7047     		bx	lr
 397              	.L28:
 398 000e 00BF     		.align	2
 399              	.L27:
 400 0010 00000000 		.word	uwTickFreq
 401 0014 00000000 		.word	uwTick
 402              		.cfi_endproc
 403              	.LFE162:
 405              		.section	.text.HAL_GetTick,"ax",%progbits
 406              		.align	1
 407              		.weak	HAL_GetTick
 408              		.syntax unified
 409              		.thumb
 410              		.thumb_func
 412              	HAL_GetTick:
 413              	.LFB163:
ARM GAS  /tmp/ccepBsJ5.s 			page 15


 334:Drivers/STM32U5xx_HAL_Driver/Src/stm32u5xx_hal.c **** 
 335:Drivers/STM32U5xx_HAL_Driver/Src/stm32u5xx_hal.c **** /**
 336:Drivers/STM32U5xx_HAL_Driver/Src/stm32u5xx_hal.c ****   * @brief Provides a tick value in millisecond.
 337:Drivers/STM32U5xx_HAL_Driver/Src/stm32u5xx_hal.c ****   * @note This function is declared as __weak to be overwritten in case of other
 338:Drivers/STM32U5xx_HAL_Driver/Src/stm32u5xx_hal.c ****   *       implementations in user file.
 339:Drivers/STM32U5xx_HAL_Driver/Src/stm32u5xx_hal.c ****   * @retval tick value
 340:Drivers/STM32U5xx_HAL_Driver/Src/stm32u5xx_hal.c ****   */
 341:Drivers/STM32U5xx_HAL_Driver/Src/stm32u5xx_hal.c **** __weak uint32_t HAL_GetTick(void)
 342:Drivers/STM32U5xx_HAL_Driver/Src/stm32u5xx_hal.c **** {
 414              		.loc 1 342 1 is_stmt 1 view -0
 415              		.cfi_startproc
 416              		@ args = 0, pretend = 0, frame = 0
 417              		@ frame_needed = 0, uses_anonymous_args = 0
 418              		@ link register save eliminated.
 343:Drivers/STM32U5xx_HAL_Driver/Src/stm32u5xx_hal.c ****   return uwTick;
 419              		.loc 1 343 3 view .LVU99
 420              		.loc 1 343 10 is_stmt 0 view .LVU100
 421 0000 014B     		ldr	r3, .L30
 422 0002 1868     		ldr	r0, [r3]
 344:Drivers/STM32U5xx_HAL_Driver/Src/stm32u5xx_hal.c **** }
 423              		.loc 1 344 1 view .LVU101
 424 0004 7047     		bx	lr
 425              	.L31:
 426 0006 00BF     		.align	2
 427              	.L30:
 428 0008 00000000 		.word	uwTick
 429              		.cfi_endproc
 430              	.LFE163:
 432              		.section	.text.HAL_GetTickPrio,"ax",%progbits
 433              		.align	1
 434              		.global	HAL_GetTickPrio
 435              		.syntax unified
 436              		.thumb
 437              		.thumb_func
 439              	HAL_GetTickPrio:
 440              	.LFB164:
 345:Drivers/STM32U5xx_HAL_Driver/Src/stm32u5xx_hal.c **** 
 346:Drivers/STM32U5xx_HAL_Driver/Src/stm32u5xx_hal.c **** /**
 347:Drivers/STM32U5xx_HAL_Driver/Src/stm32u5xx_hal.c ****   * @brief This function returns a tick priority.
 348:Drivers/STM32U5xx_HAL_Driver/Src/stm32u5xx_hal.c ****   * @retval tick priority
 349:Drivers/STM32U5xx_HAL_Driver/Src/stm32u5xx_hal.c ****   */
 350:Drivers/STM32U5xx_HAL_Driver/Src/stm32u5xx_hal.c **** uint32_t HAL_GetTickPrio(void)
 351:Drivers/STM32U5xx_HAL_Driver/Src/stm32u5xx_hal.c **** {
 441              		.loc 1 351 1 is_stmt 1 view -0
 442              		.cfi_startproc
 443              		@ args = 0, pretend = 0, frame = 0
 444              		@ frame_needed = 0, uses_anonymous_args = 0
 445              		@ link register save eliminated.
 352:Drivers/STM32U5xx_HAL_Driver/Src/stm32u5xx_hal.c ****   return uwTickPrio;
 446              		.loc 1 352 3 view .LVU103
 353:Drivers/STM32U5xx_HAL_Driver/Src/stm32u5xx_hal.c **** }
 447              		.loc 1 353 1 is_stmt 0 view .LVU104
 448 0000 014B     		ldr	r3, .L33
 449 0002 1868     		ldr	r0, [r3]
 450 0004 7047     		bx	lr
 451              	.L34:
 452 0006 00BF     		.align	2
ARM GAS  /tmp/ccepBsJ5.s 			page 16


 453              	.L33:
 454 0008 00000000 		.word	uwTickPrio
 455              		.cfi_endproc
 456              	.LFE164:
 458              		.section	.text.HAL_SetTickFreq,"ax",%progbits
 459              		.align	1
 460              		.global	HAL_SetTickFreq
 461              		.syntax unified
 462              		.thumb
 463              		.thumb_func
 465              	HAL_SetTickFreq:
 466              	.LVL21:
 467              	.LFB165:
 354:Drivers/STM32U5xx_HAL_Driver/Src/stm32u5xx_hal.c **** 
 355:Drivers/STM32U5xx_HAL_Driver/Src/stm32u5xx_hal.c **** /**
 356:Drivers/STM32U5xx_HAL_Driver/Src/stm32u5xx_hal.c ****   * @brief Set new tick Freq.
 357:Drivers/STM32U5xx_HAL_Driver/Src/stm32u5xx_hal.c ****   * @retval Status
 358:Drivers/STM32U5xx_HAL_Driver/Src/stm32u5xx_hal.c ****   */
 359:Drivers/STM32U5xx_HAL_Driver/Src/stm32u5xx_hal.c **** HAL_StatusTypeDef HAL_SetTickFreq(HAL_TickFreqTypeDef Freq)
 360:Drivers/STM32U5xx_HAL_Driver/Src/stm32u5xx_hal.c **** {
 468              		.loc 1 360 1 is_stmt 1 view -0
 469              		.cfi_startproc
 470              		@ args = 0, pretend = 0, frame = 0
 471              		@ frame_needed = 0, uses_anonymous_args = 0
 472              		.loc 1 360 1 is_stmt 0 view .LVU106
 473 0000 10B5     		push	{r4, lr}
 474              	.LCFI3:
 475              		.cfi_def_cfa_offset 8
 476              		.cfi_offset 4, -8
 477              		.cfi_offset 14, -4
 361:Drivers/STM32U5xx_HAL_Driver/Src/stm32u5xx_hal.c ****   HAL_StatusTypeDef status  = HAL_OK;
 478              		.loc 1 361 3 is_stmt 1 view .LVU107
 479              	.LVL22:
 362:Drivers/STM32U5xx_HAL_Driver/Src/stm32u5xx_hal.c ****   HAL_TickFreqTypeDef prevTickFreq;
 480              		.loc 1 362 3 view .LVU108
 363:Drivers/STM32U5xx_HAL_Driver/Src/stm32u5xx_hal.c **** 
 364:Drivers/STM32U5xx_HAL_Driver/Src/stm32u5xx_hal.c ****   assert_param(IS_TICKFREQ(Freq));
 481              		.loc 1 364 3 view .LVU109
 365:Drivers/STM32U5xx_HAL_Driver/Src/stm32u5xx_hal.c **** 
 366:Drivers/STM32U5xx_HAL_Driver/Src/stm32u5xx_hal.c ****   if (uwTickFreq != Freq)
 482              		.loc 1 366 3 view .LVU110
 483              		.loc 1 366 18 is_stmt 0 view .LVU111
 484 0002 084B     		ldr	r3, .L40
 485 0004 1C78     		ldrb	r4, [r3]	@ zero_extendqisi2
 486              		.loc 1 366 6 view .LVU112
 487 0006 8442     		cmp	r4, r0
 488 0008 01D1     		bne	.L39
 361:Drivers/STM32U5xx_HAL_Driver/Src/stm32u5xx_hal.c ****   HAL_TickFreqTypeDef prevTickFreq;
 489              		.loc 1 361 21 view .LVU113
 490 000a 0020     		movs	r0, #0
 491              	.LVL23:
 492              	.L36:
 367:Drivers/STM32U5xx_HAL_Driver/Src/stm32u5xx_hal.c ****   {
 368:Drivers/STM32U5xx_HAL_Driver/Src/stm32u5xx_hal.c **** 
 369:Drivers/STM32U5xx_HAL_Driver/Src/stm32u5xx_hal.c ****     /* Back up uwTickFreq frequency */
 370:Drivers/STM32U5xx_HAL_Driver/Src/stm32u5xx_hal.c ****     prevTickFreq = uwTickFreq;
 371:Drivers/STM32U5xx_HAL_Driver/Src/stm32u5xx_hal.c **** 
ARM GAS  /tmp/ccepBsJ5.s 			page 17


 372:Drivers/STM32U5xx_HAL_Driver/Src/stm32u5xx_hal.c ****     /* Update uwTickFreq global variable used by HAL_InitTick() */
 373:Drivers/STM32U5xx_HAL_Driver/Src/stm32u5xx_hal.c ****     uwTickFreq = Freq;
 374:Drivers/STM32U5xx_HAL_Driver/Src/stm32u5xx_hal.c **** 
 375:Drivers/STM32U5xx_HAL_Driver/Src/stm32u5xx_hal.c ****     /* Apply the new tick Freq  */
 376:Drivers/STM32U5xx_HAL_Driver/Src/stm32u5xx_hal.c ****     status = HAL_InitTick(uwTickPrio);
 377:Drivers/STM32U5xx_HAL_Driver/Src/stm32u5xx_hal.c ****     if (status != HAL_OK)
 378:Drivers/STM32U5xx_HAL_Driver/Src/stm32u5xx_hal.c ****     {
 379:Drivers/STM32U5xx_HAL_Driver/Src/stm32u5xx_hal.c ****       /* Restore previous tick frequency */
 380:Drivers/STM32U5xx_HAL_Driver/Src/stm32u5xx_hal.c ****       uwTickFreq = prevTickFreq;
 381:Drivers/STM32U5xx_HAL_Driver/Src/stm32u5xx_hal.c ****     }
 382:Drivers/STM32U5xx_HAL_Driver/Src/stm32u5xx_hal.c ****   }
 383:Drivers/STM32U5xx_HAL_Driver/Src/stm32u5xx_hal.c **** 
 384:Drivers/STM32U5xx_HAL_Driver/Src/stm32u5xx_hal.c ****   return status;
 493              		.loc 1 384 3 is_stmt 1 view .LVU114
 385:Drivers/STM32U5xx_HAL_Driver/Src/stm32u5xx_hal.c **** }
 494              		.loc 1 385 1 is_stmt 0 view .LVU115
 495 000c 10BD     		pop	{r4, pc}
 496              	.LVL24:
 497              	.L39:
 370:Drivers/STM32U5xx_HAL_Driver/Src/stm32u5xx_hal.c **** 
 498              		.loc 1 370 5 is_stmt 1 view .LVU116
 373:Drivers/STM32U5xx_HAL_Driver/Src/stm32u5xx_hal.c **** 
 499              		.loc 1 373 5 view .LVU117
 373:Drivers/STM32U5xx_HAL_Driver/Src/stm32u5xx_hal.c **** 
 500              		.loc 1 373 16 is_stmt 0 view .LVU118
 501 000e 1870     		strb	r0, [r3]
 376:Drivers/STM32U5xx_HAL_Driver/Src/stm32u5xx_hal.c ****     if (status != HAL_OK)
 502              		.loc 1 376 5 is_stmt 1 view .LVU119
 376:Drivers/STM32U5xx_HAL_Driver/Src/stm32u5xx_hal.c ****     if (status != HAL_OK)
 503              		.loc 1 376 14 is_stmt 0 view .LVU120
 504 0010 054B     		ldr	r3, .L40+4
 505 0012 1868     		ldr	r0, [r3]
 506              	.LVL25:
 376:Drivers/STM32U5xx_HAL_Driver/Src/stm32u5xx_hal.c ****     if (status != HAL_OK)
 507              		.loc 1 376 14 view .LVU121
 508 0014 FFF7FEFF 		bl	HAL_InitTick
 509              	.LVL26:
 377:Drivers/STM32U5xx_HAL_Driver/Src/stm32u5xx_hal.c ****     {
 510              		.loc 1 377 5 is_stmt 1 view .LVU122
 377:Drivers/STM32U5xx_HAL_Driver/Src/stm32u5xx_hal.c ****     {
 511              		.loc 1 377 8 is_stmt 0 view .LVU123
 512 0018 0028     		cmp	r0, #0
 513 001a F7D0     		beq	.L36
 380:Drivers/STM32U5xx_HAL_Driver/Src/stm32u5xx_hal.c ****     }
 514              		.loc 1 380 7 is_stmt 1 view .LVU124
 380:Drivers/STM32U5xx_HAL_Driver/Src/stm32u5xx_hal.c ****     }
 515              		.loc 1 380 18 is_stmt 0 view .LVU125
 516 001c 014B     		ldr	r3, .L40
 517 001e 1C70     		strb	r4, [r3]
 518 0020 F4E7     		b	.L36
 519              	.L41:
 520 0022 00BF     		.align	2
 521              	.L40:
 522 0024 00000000 		.word	uwTickFreq
 523 0028 00000000 		.word	uwTickPrio
 524              		.cfi_endproc
 525              	.LFE165:
ARM GAS  /tmp/ccepBsJ5.s 			page 18


 527              		.section	.text.HAL_GetTickFreq,"ax",%progbits
 528              		.align	1
 529              		.global	HAL_GetTickFreq
 530              		.syntax unified
 531              		.thumb
 532              		.thumb_func
 534              	HAL_GetTickFreq:
 535              	.LFB166:
 386:Drivers/STM32U5xx_HAL_Driver/Src/stm32u5xx_hal.c **** 
 387:Drivers/STM32U5xx_HAL_Driver/Src/stm32u5xx_hal.c **** /**
 388:Drivers/STM32U5xx_HAL_Driver/Src/stm32u5xx_hal.c ****   * @brief Return tick frequency.
 389:Drivers/STM32U5xx_HAL_Driver/Src/stm32u5xx_hal.c ****   * @retval Tick frequency.
 390:Drivers/STM32U5xx_HAL_Driver/Src/stm32u5xx_hal.c ****   *         Value of @ref HAL_TickFreqTypeDef.
 391:Drivers/STM32U5xx_HAL_Driver/Src/stm32u5xx_hal.c ****   */
 392:Drivers/STM32U5xx_HAL_Driver/Src/stm32u5xx_hal.c **** HAL_TickFreqTypeDef HAL_GetTickFreq(void)
 393:Drivers/STM32U5xx_HAL_Driver/Src/stm32u5xx_hal.c **** {
 536              		.loc 1 393 1 is_stmt 1 view -0
 537              		.cfi_startproc
 538              		@ args = 0, pretend = 0, frame = 0
 539              		@ frame_needed = 0, uses_anonymous_args = 0
 540              		@ link register save eliminated.
 394:Drivers/STM32U5xx_HAL_Driver/Src/stm32u5xx_hal.c ****   return uwTickFreq;
 541              		.loc 1 394 3 view .LVU127
 395:Drivers/STM32U5xx_HAL_Driver/Src/stm32u5xx_hal.c **** }
 542              		.loc 1 395 1 is_stmt 0 view .LVU128
 543 0000 014B     		ldr	r3, .L43
 544 0002 1878     		ldrb	r0, [r3]	@ zero_extendqisi2
 545 0004 7047     		bx	lr
 546              	.L44:
 547 0006 00BF     		.align	2
 548              	.L43:
 549 0008 00000000 		.word	uwTickFreq
 550              		.cfi_endproc
 551              	.LFE166:
 553              		.section	.text.HAL_Delay,"ax",%progbits
 554              		.align	1
 555              		.weak	HAL_Delay
 556              		.syntax unified
 557              		.thumb
 558              		.thumb_func
 560              	HAL_Delay:
 561              	.LVL27:
 562              	.LFB167:
 396:Drivers/STM32U5xx_HAL_Driver/Src/stm32u5xx_hal.c **** 
 397:Drivers/STM32U5xx_HAL_Driver/Src/stm32u5xx_hal.c **** /**
 398:Drivers/STM32U5xx_HAL_Driver/Src/stm32u5xx_hal.c ****   * @brief This function provides minimum delay (in milliseconds) based
 399:Drivers/STM32U5xx_HAL_Driver/Src/stm32u5xx_hal.c ****   *        on variable incremented.
 400:Drivers/STM32U5xx_HAL_Driver/Src/stm32u5xx_hal.c ****   * @note In the default implementation , SysTick timer is the source of time base.
 401:Drivers/STM32U5xx_HAL_Driver/Src/stm32u5xx_hal.c ****   *       It is used to generate interrupts at regular time intervals where uwTick
 402:Drivers/STM32U5xx_HAL_Driver/Src/stm32u5xx_hal.c ****   *       is incremented.
 403:Drivers/STM32U5xx_HAL_Driver/Src/stm32u5xx_hal.c ****   * @note This function is declared as __weak to be overwritten in case of other
 404:Drivers/STM32U5xx_HAL_Driver/Src/stm32u5xx_hal.c ****   *       implementations in user file.
 405:Drivers/STM32U5xx_HAL_Driver/Src/stm32u5xx_hal.c ****   * @param Delay  specifies the delay time length, in milliseconds.
 406:Drivers/STM32U5xx_HAL_Driver/Src/stm32u5xx_hal.c ****   * @retval None
 407:Drivers/STM32U5xx_HAL_Driver/Src/stm32u5xx_hal.c ****   */
 408:Drivers/STM32U5xx_HAL_Driver/Src/stm32u5xx_hal.c **** __weak void HAL_Delay(uint32_t Delay)
 409:Drivers/STM32U5xx_HAL_Driver/Src/stm32u5xx_hal.c **** {
ARM GAS  /tmp/ccepBsJ5.s 			page 19


 563              		.loc 1 409 1 is_stmt 1 view -0
 564              		.cfi_startproc
 565              		@ args = 0, pretend = 0, frame = 0
 566              		@ frame_needed = 0, uses_anonymous_args = 0
 567              		.loc 1 409 1 is_stmt 0 view .LVU130
 568 0000 38B5     		push	{r3, r4, r5, lr}
 569              	.LCFI4:
 570              		.cfi_def_cfa_offset 16
 571              		.cfi_offset 3, -16
 572              		.cfi_offset 4, -12
 573              		.cfi_offset 5, -8
 574              		.cfi_offset 14, -4
 575 0002 0446     		mov	r4, r0
 410:Drivers/STM32U5xx_HAL_Driver/Src/stm32u5xx_hal.c ****   uint32_t tickstart = HAL_GetTick();
 576              		.loc 1 410 3 is_stmt 1 view .LVU131
 577              		.loc 1 410 24 is_stmt 0 view .LVU132
 578 0004 FFF7FEFF 		bl	HAL_GetTick
 579              	.LVL28:
 580              		.loc 1 410 24 view .LVU133
 581 0008 0546     		mov	r5, r0
 582              	.LVL29:
 411:Drivers/STM32U5xx_HAL_Driver/Src/stm32u5xx_hal.c ****   uint32_t wait = Delay;
 583              		.loc 1 411 3 is_stmt 1 view .LVU134
 412:Drivers/STM32U5xx_HAL_Driver/Src/stm32u5xx_hal.c **** 
 413:Drivers/STM32U5xx_HAL_Driver/Src/stm32u5xx_hal.c ****   /* Add a freq to guarantee minimum wait */
 414:Drivers/STM32U5xx_HAL_Driver/Src/stm32u5xx_hal.c ****   if (wait < HAL_MAX_DELAY)
 584              		.loc 1 414 3 view .LVU135
 585              		.loc 1 414 6 is_stmt 0 view .LVU136
 586 000a B4F1FF3F 		cmp	r4, #-1
 587 000e 02D0     		beq	.L47
 415:Drivers/STM32U5xx_HAL_Driver/Src/stm32u5xx_hal.c ****   {
 416:Drivers/STM32U5xx_HAL_Driver/Src/stm32u5xx_hal.c ****     wait += (uint32_t)(uwTickFreq);
 588              		.loc 1 416 5 is_stmt 1 view .LVU137
 589              		.loc 1 416 13 is_stmt 0 view .LVU138
 590 0010 044B     		ldr	r3, .L49
 591 0012 1B78     		ldrb	r3, [r3]	@ zero_extendqisi2
 592              		.loc 1 416 10 view .LVU139
 593 0014 1C44     		add	r4, r4, r3
 594              	.LVL30:
 595              	.L47:
 417:Drivers/STM32U5xx_HAL_Driver/Src/stm32u5xx_hal.c ****   }
 418:Drivers/STM32U5xx_HAL_Driver/Src/stm32u5xx_hal.c **** 
 419:Drivers/STM32U5xx_HAL_Driver/Src/stm32u5xx_hal.c ****   while ((HAL_GetTick() - tickstart) < wait)
 420:Drivers/STM32U5xx_HAL_Driver/Src/stm32u5xx_hal.c ****   {
 421:Drivers/STM32U5xx_HAL_Driver/Src/stm32u5xx_hal.c ****   }
 596              		.loc 1 421 3 is_stmt 1 view .LVU140
 419:Drivers/STM32U5xx_HAL_Driver/Src/stm32u5xx_hal.c ****   {
 597              		.loc 1 419 38 discriminator 1 view .LVU141
 419:Drivers/STM32U5xx_HAL_Driver/Src/stm32u5xx_hal.c ****   {
 598              		.loc 1 419 11 is_stmt 0 discriminator 1 view .LVU142
 599 0016 FFF7FEFF 		bl	HAL_GetTick
 600              	.LVL31:
 419:Drivers/STM32U5xx_HAL_Driver/Src/stm32u5xx_hal.c ****   {
 601              		.loc 1 419 25 discriminator 1 view .LVU143
 602 001a 401B     		subs	r0, r0, r5
 419:Drivers/STM32U5xx_HAL_Driver/Src/stm32u5xx_hal.c ****   {
 603              		.loc 1 419 38 discriminator 1 view .LVU144
ARM GAS  /tmp/ccepBsJ5.s 			page 20


 604 001c A042     		cmp	r0, r4
 605 001e FAD3     		bcc	.L47
 422:Drivers/STM32U5xx_HAL_Driver/Src/stm32u5xx_hal.c **** }
 606              		.loc 1 422 1 view .LVU145
 607 0020 38BD     		pop	{r3, r4, r5, pc}
 608              	.LVL32:
 609              	.L50:
 610              		.loc 1 422 1 view .LVU146
 611 0022 00BF     		.align	2
 612              	.L49:
 613 0024 00000000 		.word	uwTickFreq
 614              		.cfi_endproc
 615              	.LFE167:
 617              		.section	.text.HAL_SuspendTick,"ax",%progbits
 618              		.align	1
 619              		.weak	HAL_SuspendTick
 620              		.syntax unified
 621              		.thumb
 622              		.thumb_func
 624              	HAL_SuspendTick:
 625              	.LFB168:
 423:Drivers/STM32U5xx_HAL_Driver/Src/stm32u5xx_hal.c **** 
 424:Drivers/STM32U5xx_HAL_Driver/Src/stm32u5xx_hal.c **** /**
 425:Drivers/STM32U5xx_HAL_Driver/Src/stm32u5xx_hal.c ****   * @brief Suspend Tick increment.
 426:Drivers/STM32U5xx_HAL_Driver/Src/stm32u5xx_hal.c ****   * @note In the default implementation , SysTick timer is the source of time base. It is
 427:Drivers/STM32U5xx_HAL_Driver/Src/stm32u5xx_hal.c ****   *       used to generate interrupts at regular time intervals. Once HAL_SuspendTick()
 428:Drivers/STM32U5xx_HAL_Driver/Src/stm32u5xx_hal.c ****   *       is called, the SysTick interrupt will be disabled and so Tick increment
 429:Drivers/STM32U5xx_HAL_Driver/Src/stm32u5xx_hal.c ****   *       is suspended.
 430:Drivers/STM32U5xx_HAL_Driver/Src/stm32u5xx_hal.c ****   * @note This function is declared as __weak to be overwritten in case of other
 431:Drivers/STM32U5xx_HAL_Driver/Src/stm32u5xx_hal.c ****   *       implementations in user file.
 432:Drivers/STM32U5xx_HAL_Driver/Src/stm32u5xx_hal.c ****   * @retval None
 433:Drivers/STM32U5xx_HAL_Driver/Src/stm32u5xx_hal.c ****   */
 434:Drivers/STM32U5xx_HAL_Driver/Src/stm32u5xx_hal.c **** __weak void HAL_SuspendTick(void)
 435:Drivers/STM32U5xx_HAL_Driver/Src/stm32u5xx_hal.c **** {
 626              		.loc 1 435 1 is_stmt 1 view -0
 627              		.cfi_startproc
 628              		@ args = 0, pretend = 0, frame = 0
 629              		@ frame_needed = 0, uses_anonymous_args = 0
 630              		@ link register save eliminated.
 436:Drivers/STM32U5xx_HAL_Driver/Src/stm32u5xx_hal.c ****   /* Disable SysTick Interrupt */
 437:Drivers/STM32U5xx_HAL_Driver/Src/stm32u5xx_hal.c ****   SysTick->CTRL &= ~SysTick_CTRL_TICKINT_Msk;
 631              		.loc 1 437 3 view .LVU148
 632              		.loc 1 437 10 is_stmt 0 view .LVU149
 633 0000 4FF0E022 		mov	r2, #-536813568
 634 0004 1369     		ldr	r3, [r2, #16]
 635              		.loc 1 437 17 view .LVU150
 636 0006 23F00203 		bic	r3, r3, #2
 637 000a 1361     		str	r3, [r2, #16]
 438:Drivers/STM32U5xx_HAL_Driver/Src/stm32u5xx_hal.c **** }
 638              		.loc 1 438 1 view .LVU151
 639 000c 7047     		bx	lr
 640              		.cfi_endproc
 641              	.LFE168:
 643              		.section	.text.HAL_ResumeTick,"ax",%progbits
 644              		.align	1
 645              		.weak	HAL_ResumeTick
 646              		.syntax unified
ARM GAS  /tmp/ccepBsJ5.s 			page 21


 647              		.thumb
 648              		.thumb_func
 650              	HAL_ResumeTick:
 651              	.LFB169:
 439:Drivers/STM32U5xx_HAL_Driver/Src/stm32u5xx_hal.c **** 
 440:Drivers/STM32U5xx_HAL_Driver/Src/stm32u5xx_hal.c **** /**
 441:Drivers/STM32U5xx_HAL_Driver/Src/stm32u5xx_hal.c ****   * @brief Resume Tick increment.
 442:Drivers/STM32U5xx_HAL_Driver/Src/stm32u5xx_hal.c ****   * @note In the default implementation , SysTick timer is the source of time base. It is
 443:Drivers/STM32U5xx_HAL_Driver/Src/stm32u5xx_hal.c ****   *       used to generate interrupts at regular time intervals. Once HAL_ResumeTick()
 444:Drivers/STM32U5xx_HAL_Driver/Src/stm32u5xx_hal.c ****   *       is called, the SysTick interrupt will be enabled and so Tick increment
 445:Drivers/STM32U5xx_HAL_Driver/Src/stm32u5xx_hal.c ****   *       is resumed.
 446:Drivers/STM32U5xx_HAL_Driver/Src/stm32u5xx_hal.c ****   * @note This function is declared as __weak to be overwritten in case of other
 447:Drivers/STM32U5xx_HAL_Driver/Src/stm32u5xx_hal.c ****   *       implementations in user file.
 448:Drivers/STM32U5xx_HAL_Driver/Src/stm32u5xx_hal.c ****   * @retval None
 449:Drivers/STM32U5xx_HAL_Driver/Src/stm32u5xx_hal.c ****   */
 450:Drivers/STM32U5xx_HAL_Driver/Src/stm32u5xx_hal.c **** __weak void HAL_ResumeTick(void)
 451:Drivers/STM32U5xx_HAL_Driver/Src/stm32u5xx_hal.c **** {
 652              		.loc 1 451 1 is_stmt 1 view -0
 653              		.cfi_startproc
 654              		@ args = 0, pretend = 0, frame = 0
 655              		@ frame_needed = 0, uses_anonymous_args = 0
 656              		@ link register save eliminated.
 452:Drivers/STM32U5xx_HAL_Driver/Src/stm32u5xx_hal.c ****   /* Enable SysTick Interrupt */
 453:Drivers/STM32U5xx_HAL_Driver/Src/stm32u5xx_hal.c ****   SysTick->CTRL  |= SysTick_CTRL_TICKINT_Msk;
 657              		.loc 1 453 3 view .LVU153
 658              		.loc 1 453 10 is_stmt 0 view .LVU154
 659 0000 4FF0E022 		mov	r2, #-536813568
 660 0004 1369     		ldr	r3, [r2, #16]
 661              		.loc 1 453 18 view .LVU155
 662 0006 43F00203 		orr	r3, r3, #2
 663 000a 1361     		str	r3, [r2, #16]
 454:Drivers/STM32U5xx_HAL_Driver/Src/stm32u5xx_hal.c **** }
 664              		.loc 1 454 1 view .LVU156
 665 000c 7047     		bx	lr
 666              		.cfi_endproc
 667              	.LFE169:
 669              		.section	.text.HAL_GetHalVersion,"ax",%progbits
 670              		.align	1
 671              		.global	HAL_GetHalVersion
 672              		.syntax unified
 673              		.thumb
 674              		.thumb_func
 676              	HAL_GetHalVersion:
 677              	.LFB170:
 455:Drivers/STM32U5xx_HAL_Driver/Src/stm32u5xx_hal.c **** 
 456:Drivers/STM32U5xx_HAL_Driver/Src/stm32u5xx_hal.c **** /**
 457:Drivers/STM32U5xx_HAL_Driver/Src/stm32u5xx_hal.c ****   * @brief  Returns the HAL revision
 458:Drivers/STM32U5xx_HAL_Driver/Src/stm32u5xx_hal.c ****   * @retval version : 0xXYZR (8bits for each decimal, R for RC)
 459:Drivers/STM32U5xx_HAL_Driver/Src/stm32u5xx_hal.c ****   */
 460:Drivers/STM32U5xx_HAL_Driver/Src/stm32u5xx_hal.c **** uint32_t HAL_GetHalVersion(void)
 461:Drivers/STM32U5xx_HAL_Driver/Src/stm32u5xx_hal.c **** {
 678              		.loc 1 461 1 is_stmt 1 view -0
 679              		.cfi_startproc
 680              		@ args = 0, pretend = 0, frame = 0
 681              		@ frame_needed = 0, uses_anonymous_args = 0
 682              		@ link register save eliminated.
 462:Drivers/STM32U5xx_HAL_Driver/Src/stm32u5xx_hal.c ****   return __STM32U5xx_HAL_VERSION;
ARM GAS  /tmp/ccepBsJ5.s 			page 22


 683              		.loc 1 462 3 view .LVU158
 463:Drivers/STM32U5xx_HAL_Driver/Src/stm32u5xx_hal.c **** }
 684              		.loc 1 463 1 is_stmt 0 view .LVU159
 685 0000 0048     		ldr	r0, .L54
 686 0002 7047     		bx	lr
 687              	.L55:
 688              		.align	2
 689              	.L54:
 690 0004 00020601 		.word	17170944
 691              		.cfi_endproc
 692              	.LFE170:
 694              		.section	.text.HAL_GetREVID,"ax",%progbits
 695              		.align	1
 696              		.global	HAL_GetREVID
 697              		.syntax unified
 698              		.thumb
 699              		.thumb_func
 701              	HAL_GetREVID:
 702              	.LFB171:
 464:Drivers/STM32U5xx_HAL_Driver/Src/stm32u5xx_hal.c **** 
 465:Drivers/STM32U5xx_HAL_Driver/Src/stm32u5xx_hal.c **** /**
 466:Drivers/STM32U5xx_HAL_Driver/Src/stm32u5xx_hal.c ****   * @brief  Returns the device revision identifier.
 467:Drivers/STM32U5xx_HAL_Driver/Src/stm32u5xx_hal.c ****   * @retval Device revision identifier
 468:Drivers/STM32U5xx_HAL_Driver/Src/stm32u5xx_hal.c ****   */
 469:Drivers/STM32U5xx_HAL_Driver/Src/stm32u5xx_hal.c **** uint32_t HAL_GetREVID(void)
 470:Drivers/STM32U5xx_HAL_Driver/Src/stm32u5xx_hal.c **** {
 703              		.loc 1 470 1 is_stmt 1 view -0
 704              		.cfi_startproc
 705              		@ args = 0, pretend = 0, frame = 0
 706              		@ frame_needed = 0, uses_anonymous_args = 0
 707              		@ link register save eliminated.
 471:Drivers/STM32U5xx_HAL_Driver/Src/stm32u5xx_hal.c ****   return ((DBGMCU->IDCODE & DBGMCU_IDCODE_REV_ID) >> 16);
 708              		.loc 1 471 3 view .LVU161
 709              		.loc 1 471 18 is_stmt 0 view .LVU162
 710 0000 014B     		ldr	r3, .L57
 711 0002 1868     		ldr	r0, [r3]
 472:Drivers/STM32U5xx_HAL_Driver/Src/stm32u5xx_hal.c **** }
 712              		.loc 1 472 1 view .LVU163
 713 0004 000C     		lsrs	r0, r0, #16
 714 0006 7047     		bx	lr
 715              	.L58:
 716              		.align	2
 717              	.L57:
 718 0008 004004E0 		.word	-536592384
 719              		.cfi_endproc
 720              	.LFE171:
 722              		.section	.text.HAL_GetDEVID,"ax",%progbits
 723              		.align	1
 724              		.global	HAL_GetDEVID
 725              		.syntax unified
 726              		.thumb
 727              		.thumb_func
 729              	HAL_GetDEVID:
 730              	.LFB172:
 473:Drivers/STM32U5xx_HAL_Driver/Src/stm32u5xx_hal.c **** 
 474:Drivers/STM32U5xx_HAL_Driver/Src/stm32u5xx_hal.c **** /**
 475:Drivers/STM32U5xx_HAL_Driver/Src/stm32u5xx_hal.c ****   * @brief  Returns the device identifier.
ARM GAS  /tmp/ccepBsJ5.s 			page 23


 476:Drivers/STM32U5xx_HAL_Driver/Src/stm32u5xx_hal.c ****   * @retval Device identifier
 477:Drivers/STM32U5xx_HAL_Driver/Src/stm32u5xx_hal.c ****   */
 478:Drivers/STM32U5xx_HAL_Driver/Src/stm32u5xx_hal.c **** uint32_t HAL_GetDEVID(void)
 479:Drivers/STM32U5xx_HAL_Driver/Src/stm32u5xx_hal.c **** {
 731              		.loc 1 479 1 is_stmt 1 view -0
 732              		.cfi_startproc
 733              		@ args = 0, pretend = 0, frame = 0
 734              		@ frame_needed = 0, uses_anonymous_args = 0
 735              		@ link register save eliminated.
 480:Drivers/STM32U5xx_HAL_Driver/Src/stm32u5xx_hal.c ****   return (DBGMCU->IDCODE & DBGMCU_IDCODE_DEV_ID);
 736              		.loc 1 480 3 view .LVU165
 737              		.loc 1 480 17 is_stmt 0 view .LVU166
 738 0000 024B     		ldr	r3, .L60
 739 0002 1868     		ldr	r0, [r3]
 481:Drivers/STM32U5xx_HAL_Driver/Src/stm32u5xx_hal.c **** }
 740              		.loc 1 481 1 view .LVU167
 741 0004 C0F30B00 		ubfx	r0, r0, #0, #12
 742 0008 7047     		bx	lr
 743              	.L61:
 744 000a 00BF     		.align	2
 745              	.L60:
 746 000c 004004E0 		.word	-536592384
 747              		.cfi_endproc
 748              	.LFE172:
 750              		.section	.text.HAL_GetUIDw0,"ax",%progbits
 751              		.align	1
 752              		.global	HAL_GetUIDw0
 753              		.syntax unified
 754              		.thumb
 755              		.thumb_func
 757              	HAL_GetUIDw0:
 758              	.LFB173:
 482:Drivers/STM32U5xx_HAL_Driver/Src/stm32u5xx_hal.c **** 
 483:Drivers/STM32U5xx_HAL_Driver/Src/stm32u5xx_hal.c **** /**
 484:Drivers/STM32U5xx_HAL_Driver/Src/stm32u5xx_hal.c ****   * @brief  Return the first word of the unique device identifier (UID based on 96 bits)
 485:Drivers/STM32U5xx_HAL_Driver/Src/stm32u5xx_hal.c ****   * @retval Device identifier
 486:Drivers/STM32U5xx_HAL_Driver/Src/stm32u5xx_hal.c ****   */
 487:Drivers/STM32U5xx_HAL_Driver/Src/stm32u5xx_hal.c **** uint32_t HAL_GetUIDw0(void)
 488:Drivers/STM32U5xx_HAL_Driver/Src/stm32u5xx_hal.c **** {
 759              		.loc 1 488 1 is_stmt 1 view -0
 760              		.cfi_startproc
 761              		@ args = 0, pretend = 0, frame = 0
 762              		@ frame_needed = 0, uses_anonymous_args = 0
 763              		@ link register save eliminated.
 489:Drivers/STM32U5xx_HAL_Driver/Src/stm32u5xx_hal.c ****   return (READ_REG(*((uint32_t *)UID_BASE)));
 764              		.loc 1 489 3 view .LVU169
 490:Drivers/STM32U5xx_HAL_Driver/Src/stm32u5xx_hal.c **** }
 765              		.loc 1 490 1 is_stmt 0 view .LVU170
 766 0000 014B     		ldr	r3, .L63
 767 0002 D3F80007 		ldr	r0, [r3, #1792]
 768 0006 7047     		bx	lr
 769              	.L64:
 770              		.align	2
 771              	.L63:
 772 0008 0000FA0B 		.word	200933376
 773              		.cfi_endproc
 774              	.LFE173:
ARM GAS  /tmp/ccepBsJ5.s 			page 24


 776              		.section	.text.HAL_GetUIDw1,"ax",%progbits
 777              		.align	1
 778              		.global	HAL_GetUIDw1
 779              		.syntax unified
 780              		.thumb
 781              		.thumb_func
 783              	HAL_GetUIDw1:
 784              	.LFB174:
 491:Drivers/STM32U5xx_HAL_Driver/Src/stm32u5xx_hal.c **** 
 492:Drivers/STM32U5xx_HAL_Driver/Src/stm32u5xx_hal.c **** /**
 493:Drivers/STM32U5xx_HAL_Driver/Src/stm32u5xx_hal.c ****   * @brief  Return the second word of the unique device identifier (UID based on 96 bits)
 494:Drivers/STM32U5xx_HAL_Driver/Src/stm32u5xx_hal.c ****   * @retval Device identifier
 495:Drivers/STM32U5xx_HAL_Driver/Src/stm32u5xx_hal.c ****   */
 496:Drivers/STM32U5xx_HAL_Driver/Src/stm32u5xx_hal.c **** uint32_t HAL_GetUIDw1(void)
 497:Drivers/STM32U5xx_HAL_Driver/Src/stm32u5xx_hal.c **** {
 785              		.loc 1 497 1 is_stmt 1 view -0
 786              		.cfi_startproc
 787              		@ args = 0, pretend = 0, frame = 0
 788              		@ frame_needed = 0, uses_anonymous_args = 0
 789              		@ link register save eliminated.
 498:Drivers/STM32U5xx_HAL_Driver/Src/stm32u5xx_hal.c ****   return (READ_REG(*((uint32_t *)(UID_BASE + 4U))));
 790              		.loc 1 498 3 view .LVU172
 499:Drivers/STM32U5xx_HAL_Driver/Src/stm32u5xx_hal.c **** }
 791              		.loc 1 499 1 is_stmt 0 view .LVU173
 792 0000 014B     		ldr	r3, .L66
 793 0002 D3F80407 		ldr	r0, [r3, #1796]
 794 0006 7047     		bx	lr
 795              	.L67:
 796              		.align	2
 797              	.L66:
 798 0008 0000FA0B 		.word	200933376
 799              		.cfi_endproc
 800              	.LFE174:
 802              		.section	.text.HAL_GetUIDw2,"ax",%progbits
 803              		.align	1
 804              		.global	HAL_GetUIDw2
 805              		.syntax unified
 806              		.thumb
 807              		.thumb_func
 809              	HAL_GetUIDw2:
 810              	.LFB175:
 500:Drivers/STM32U5xx_HAL_Driver/Src/stm32u5xx_hal.c **** 
 501:Drivers/STM32U5xx_HAL_Driver/Src/stm32u5xx_hal.c **** /**
 502:Drivers/STM32U5xx_HAL_Driver/Src/stm32u5xx_hal.c ****   * @brief  Return the third word of the unique device identifier (UID based on 96 bits)
 503:Drivers/STM32U5xx_HAL_Driver/Src/stm32u5xx_hal.c ****   * @retval Device identifier
 504:Drivers/STM32U5xx_HAL_Driver/Src/stm32u5xx_hal.c ****   */
 505:Drivers/STM32U5xx_HAL_Driver/Src/stm32u5xx_hal.c **** uint32_t HAL_GetUIDw2(void)
 506:Drivers/STM32U5xx_HAL_Driver/Src/stm32u5xx_hal.c **** {
 811              		.loc 1 506 1 is_stmt 1 view -0
 812              		.cfi_startproc
 813              		@ args = 0, pretend = 0, frame = 0
 814              		@ frame_needed = 0, uses_anonymous_args = 0
 815              		@ link register save eliminated.
 507:Drivers/STM32U5xx_HAL_Driver/Src/stm32u5xx_hal.c ****   return (READ_REG(*((uint32_t *)(UID_BASE + 8U))));
 816              		.loc 1 507 3 view .LVU175
 508:Drivers/STM32U5xx_HAL_Driver/Src/stm32u5xx_hal.c **** }
 817              		.loc 1 508 1 is_stmt 0 view .LVU176
ARM GAS  /tmp/ccepBsJ5.s 			page 25


 818 0000 014B     		ldr	r3, .L69
 819 0002 D3F80807 		ldr	r0, [r3, #1800]
 820 0006 7047     		bx	lr
 821              	.L70:
 822              		.align	2
 823              	.L69:
 824 0008 0000FA0B 		.word	200933376
 825              		.cfi_endproc
 826              	.LFE175:
 828              		.section	.text.HAL_DBGMCU_EnableDBGStopMode,"ax",%progbits
 829              		.align	1
 830              		.global	HAL_DBGMCU_EnableDBGStopMode
 831              		.syntax unified
 832              		.thumb
 833              		.thumb_func
 835              	HAL_DBGMCU_EnableDBGStopMode:
 836              	.LFB176:
 509:Drivers/STM32U5xx_HAL_Driver/Src/stm32u5xx_hal.c **** 
 510:Drivers/STM32U5xx_HAL_Driver/Src/stm32u5xx_hal.c **** /**
 511:Drivers/STM32U5xx_HAL_Driver/Src/stm32u5xx_hal.c ****   * @}
 512:Drivers/STM32U5xx_HAL_Driver/Src/stm32u5xx_hal.c ****   */
 513:Drivers/STM32U5xx_HAL_Driver/Src/stm32u5xx_hal.c **** 
 514:Drivers/STM32U5xx_HAL_Driver/Src/stm32u5xx_hal.c **** 
 515:Drivers/STM32U5xx_HAL_Driver/Src/stm32u5xx_hal.c **** /** @defgroup HAL_Exported_Functions_Group3 HAL Debug functions
 516:Drivers/STM32U5xx_HAL_Driver/Src/stm32u5xx_hal.c ****   *  @brief    HAL Debug functions
 517:Drivers/STM32U5xx_HAL_Driver/Src/stm32u5xx_hal.c ****   *
 518:Drivers/STM32U5xx_HAL_Driver/Src/stm32u5xx_hal.c **** @verbatim
 519:Drivers/STM32U5xx_HAL_Driver/Src/stm32u5xx_hal.c ****  ===============================================================================
 520:Drivers/STM32U5xx_HAL_Driver/Src/stm32u5xx_hal.c ****                       ##### HAL Debug functions #####
 521:Drivers/STM32U5xx_HAL_Driver/Src/stm32u5xx_hal.c ****  ===============================================================================
 522:Drivers/STM32U5xx_HAL_Driver/Src/stm32u5xx_hal.c ****     [..]  This section provides functions allowing to:
 523:Drivers/STM32U5xx_HAL_Driver/Src/stm32u5xx_hal.c ****       (+) Enable/Disable Debug module during STOP0/STOP1/STOP2 modes
 524:Drivers/STM32U5xx_HAL_Driver/Src/stm32u5xx_hal.c ****       (+) Enable/Disable Debug module during STANDBY mode
 525:Drivers/STM32U5xx_HAL_Driver/Src/stm32u5xx_hal.c **** 
 526:Drivers/STM32U5xx_HAL_Driver/Src/stm32u5xx_hal.c **** @endverbatim
 527:Drivers/STM32U5xx_HAL_Driver/Src/stm32u5xx_hal.c ****   * @{
 528:Drivers/STM32U5xx_HAL_Driver/Src/stm32u5xx_hal.c ****   */
 529:Drivers/STM32U5xx_HAL_Driver/Src/stm32u5xx_hal.c **** 
 530:Drivers/STM32U5xx_HAL_Driver/Src/stm32u5xx_hal.c **** /**
 531:Drivers/STM32U5xx_HAL_Driver/Src/stm32u5xx_hal.c ****   * @brief  Enable the Debug Module during STOP0/STOP1/STOP2 modes.
 532:Drivers/STM32U5xx_HAL_Driver/Src/stm32u5xx_hal.c ****   * @retval None
 533:Drivers/STM32U5xx_HAL_Driver/Src/stm32u5xx_hal.c ****   */
 534:Drivers/STM32U5xx_HAL_Driver/Src/stm32u5xx_hal.c **** void HAL_DBGMCU_EnableDBGStopMode(void)
 535:Drivers/STM32U5xx_HAL_Driver/Src/stm32u5xx_hal.c **** {
 837              		.loc 1 535 1 is_stmt 1 view -0
 838              		.cfi_startproc
 839              		@ args = 0, pretend = 0, frame = 0
 840              		@ frame_needed = 0, uses_anonymous_args = 0
 841              		@ link register save eliminated.
 536:Drivers/STM32U5xx_HAL_Driver/Src/stm32u5xx_hal.c ****   SET_BIT(DBGMCU->CR, DBGMCU_CR_DBG_STOP);
 842              		.loc 1 536 3 view .LVU178
 843 0000 024A     		ldr	r2, .L72
 844 0002 5368     		ldr	r3, [r2, #4]
 845 0004 43F00203 		orr	r3, r3, #2
 846 0008 5360     		str	r3, [r2, #4]
 537:Drivers/STM32U5xx_HAL_Driver/Src/stm32u5xx_hal.c **** }
 847              		.loc 1 537 1 is_stmt 0 view .LVU179
ARM GAS  /tmp/ccepBsJ5.s 			page 26


 848 000a 7047     		bx	lr
 849              	.L73:
 850              		.align	2
 851              	.L72:
 852 000c 004004E0 		.word	-536592384
 853              		.cfi_endproc
 854              	.LFE176:
 856              		.section	.text.HAL_DBGMCU_DisableDBGStopMode,"ax",%progbits
 857              		.align	1
 858              		.global	HAL_DBGMCU_DisableDBGStopMode
 859              		.syntax unified
 860              		.thumb
 861              		.thumb_func
 863              	HAL_DBGMCU_DisableDBGStopMode:
 864              	.LFB177:
 538:Drivers/STM32U5xx_HAL_Driver/Src/stm32u5xx_hal.c **** 
 539:Drivers/STM32U5xx_HAL_Driver/Src/stm32u5xx_hal.c **** /**
 540:Drivers/STM32U5xx_HAL_Driver/Src/stm32u5xx_hal.c ****   * @brief  Disable the Debug Module during STOP0/STOP1/STOP2 modes.
 541:Drivers/STM32U5xx_HAL_Driver/Src/stm32u5xx_hal.c ****   * @retval None
 542:Drivers/STM32U5xx_HAL_Driver/Src/stm32u5xx_hal.c ****   */
 543:Drivers/STM32U5xx_HAL_Driver/Src/stm32u5xx_hal.c **** void HAL_DBGMCU_DisableDBGStopMode(void)
 544:Drivers/STM32U5xx_HAL_Driver/Src/stm32u5xx_hal.c **** {
 865              		.loc 1 544 1 is_stmt 1 view -0
 866              		.cfi_startproc
 867              		@ args = 0, pretend = 0, frame = 0
 868              		@ frame_needed = 0, uses_anonymous_args = 0
 869              		@ link register save eliminated.
 545:Drivers/STM32U5xx_HAL_Driver/Src/stm32u5xx_hal.c ****   CLEAR_BIT(DBGMCU->CR, DBGMCU_CR_DBG_STOP);
 870              		.loc 1 545 3 view .LVU181
 871 0000 024A     		ldr	r2, .L75
 872 0002 5368     		ldr	r3, [r2, #4]
 873 0004 23F00203 		bic	r3, r3, #2
 874 0008 5360     		str	r3, [r2, #4]
 546:Drivers/STM32U5xx_HAL_Driver/Src/stm32u5xx_hal.c **** }
 875              		.loc 1 546 1 is_stmt 0 view .LVU182
 876 000a 7047     		bx	lr
 877              	.L76:
 878              		.align	2
 879              	.L75:
 880 000c 004004E0 		.word	-536592384
 881              		.cfi_endproc
 882              	.LFE177:
 884              		.section	.text.HAL_DBGMCU_EnableDBGStandbyMode,"ax",%progbits
 885              		.align	1
 886              		.global	HAL_DBGMCU_EnableDBGStandbyMode
 887              		.syntax unified
 888              		.thumb
 889              		.thumb_func
 891              	HAL_DBGMCU_EnableDBGStandbyMode:
 892              	.LFB178:
 547:Drivers/STM32U5xx_HAL_Driver/Src/stm32u5xx_hal.c **** 
 548:Drivers/STM32U5xx_HAL_Driver/Src/stm32u5xx_hal.c **** /**
 549:Drivers/STM32U5xx_HAL_Driver/Src/stm32u5xx_hal.c ****   * @brief  Enable the Debug Module during STANDBY mode.
 550:Drivers/STM32U5xx_HAL_Driver/Src/stm32u5xx_hal.c ****   * @retval None
 551:Drivers/STM32U5xx_HAL_Driver/Src/stm32u5xx_hal.c ****   */
 552:Drivers/STM32U5xx_HAL_Driver/Src/stm32u5xx_hal.c **** void HAL_DBGMCU_EnableDBGStandbyMode(void)
 553:Drivers/STM32U5xx_HAL_Driver/Src/stm32u5xx_hal.c **** {
ARM GAS  /tmp/ccepBsJ5.s 			page 27


 893              		.loc 1 553 1 is_stmt 1 view -0
 894              		.cfi_startproc
 895              		@ args = 0, pretend = 0, frame = 0
 896              		@ frame_needed = 0, uses_anonymous_args = 0
 897              		@ link register save eliminated.
 554:Drivers/STM32U5xx_HAL_Driver/Src/stm32u5xx_hal.c ****   SET_BIT(DBGMCU->CR, DBGMCU_CR_DBG_STANDBY);
 898              		.loc 1 554 3 view .LVU184
 899 0000 024A     		ldr	r2, .L78
 900 0002 5368     		ldr	r3, [r2, #4]
 901 0004 43F00403 		orr	r3, r3, #4
 902 0008 5360     		str	r3, [r2, #4]
 555:Drivers/STM32U5xx_HAL_Driver/Src/stm32u5xx_hal.c **** }
 903              		.loc 1 555 1 is_stmt 0 view .LVU185
 904 000a 7047     		bx	lr
 905              	.L79:
 906              		.align	2
 907              	.L78:
 908 000c 004004E0 		.word	-536592384
 909              		.cfi_endproc
 910              	.LFE178:
 912              		.section	.text.HAL_DBGMCU_DisableDBGStandbyMode,"ax",%progbits
 913              		.align	1
 914              		.global	HAL_DBGMCU_DisableDBGStandbyMode
 915              		.syntax unified
 916              		.thumb
 917              		.thumb_func
 919              	HAL_DBGMCU_DisableDBGStandbyMode:
 920              	.LFB179:
 556:Drivers/STM32U5xx_HAL_Driver/Src/stm32u5xx_hal.c **** 
 557:Drivers/STM32U5xx_HAL_Driver/Src/stm32u5xx_hal.c **** /**
 558:Drivers/STM32U5xx_HAL_Driver/Src/stm32u5xx_hal.c ****   * @brief  Disable the Debug Module during STANDBY mode.
 559:Drivers/STM32U5xx_HAL_Driver/Src/stm32u5xx_hal.c ****   * @retval None
 560:Drivers/STM32U5xx_HAL_Driver/Src/stm32u5xx_hal.c ****   */
 561:Drivers/STM32U5xx_HAL_Driver/Src/stm32u5xx_hal.c **** void HAL_DBGMCU_DisableDBGStandbyMode(void)
 562:Drivers/STM32U5xx_HAL_Driver/Src/stm32u5xx_hal.c **** {
 921              		.loc 1 562 1 is_stmt 1 view -0
 922              		.cfi_startproc
 923              		@ args = 0, pretend = 0, frame = 0
 924              		@ frame_needed = 0, uses_anonymous_args = 0
 925              		@ link register save eliminated.
 563:Drivers/STM32U5xx_HAL_Driver/Src/stm32u5xx_hal.c ****   CLEAR_BIT(DBGMCU->CR, DBGMCU_CR_DBG_STANDBY);
 926              		.loc 1 563 3 view .LVU187
 927 0000 024A     		ldr	r2, .L81
 928 0002 5368     		ldr	r3, [r2, #4]
 929 0004 23F00403 		bic	r3, r3, #4
 930 0008 5360     		str	r3, [r2, #4]
 564:Drivers/STM32U5xx_HAL_Driver/Src/stm32u5xx_hal.c **** }
 931              		.loc 1 564 1 is_stmt 0 view .LVU188
 932 000a 7047     		bx	lr
 933              	.L82:
 934              		.align	2
 935              	.L81:
 936 000c 004004E0 		.word	-536592384
 937              		.cfi_endproc
 938              	.LFE179:
 940              		.section	.text.HAL_SYSCFG_VREFBUF_VoltageScalingConfig,"ax",%progbits
 941              		.align	1
ARM GAS  /tmp/ccepBsJ5.s 			page 28


 942              		.global	HAL_SYSCFG_VREFBUF_VoltageScalingConfig
 943              		.syntax unified
 944              		.thumb
 945              		.thumb_func
 947              	HAL_SYSCFG_VREFBUF_VoltageScalingConfig:
 948              	.LVL33:
 949              	.LFB180:
 565:Drivers/STM32U5xx_HAL_Driver/Src/stm32u5xx_hal.c **** 
 566:Drivers/STM32U5xx_HAL_Driver/Src/stm32u5xx_hal.c **** /**
 567:Drivers/STM32U5xx_HAL_Driver/Src/stm32u5xx_hal.c ****   * @}
 568:Drivers/STM32U5xx_HAL_Driver/Src/stm32u5xx_hal.c ****   */
 569:Drivers/STM32U5xx_HAL_Driver/Src/stm32u5xx_hal.c **** 
 570:Drivers/STM32U5xx_HAL_Driver/Src/stm32u5xx_hal.c **** /** @defgroup HAL_Exported_Functions_Group4 HAL SYSCFG configuration functions
 571:Drivers/STM32U5xx_HAL_Driver/Src/stm32u5xx_hal.c ****   *  @brief    HAL SYSCFG configuration functions
 572:Drivers/STM32U5xx_HAL_Driver/Src/stm32u5xx_hal.c ****   *
 573:Drivers/STM32U5xx_HAL_Driver/Src/stm32u5xx_hal.c **** @verbatim
 574:Drivers/STM32U5xx_HAL_Driver/Src/stm32u5xx_hal.c ****  ===============================================================================
 575:Drivers/STM32U5xx_HAL_Driver/Src/stm32u5xx_hal.c ****                       ##### HAL SYSCFG configuration functions #####
 576:Drivers/STM32U5xx_HAL_Driver/Src/stm32u5xx_hal.c ****  ===============================================================================
 577:Drivers/STM32U5xx_HAL_Driver/Src/stm32u5xx_hal.c ****     [..]  This section provides functions allowing to:
 578:Drivers/STM32U5xx_HAL_Driver/Src/stm32u5xx_hal.c ****       (+) Configure the Voltage reference buffer
 579:Drivers/STM32U5xx_HAL_Driver/Src/stm32u5xx_hal.c ****       (+) Enable/Disable the Voltage reference buffer
 580:Drivers/STM32U5xx_HAL_Driver/Src/stm32u5xx_hal.c ****       (+) Enable/Disable the I/O analog switch voltage booster
 581:Drivers/STM32U5xx_HAL_Driver/Src/stm32u5xx_hal.c **** 
 582:Drivers/STM32U5xx_HAL_Driver/Src/stm32u5xx_hal.c **** @endverbatim
 583:Drivers/STM32U5xx_HAL_Driver/Src/stm32u5xx_hal.c ****   * @{
 584:Drivers/STM32U5xx_HAL_Driver/Src/stm32u5xx_hal.c ****   */
 585:Drivers/STM32U5xx_HAL_Driver/Src/stm32u5xx_hal.c **** 
 586:Drivers/STM32U5xx_HAL_Driver/Src/stm32u5xx_hal.c **** /**
 587:Drivers/STM32U5xx_HAL_Driver/Src/stm32u5xx_hal.c ****   * @brief Configure the internal voltage reference buffer voltage scale.
 588:Drivers/STM32U5xx_HAL_Driver/Src/stm32u5xx_hal.c ****   * @param  VoltageScaling: specifies the output voltage to achieve
 589:Drivers/STM32U5xx_HAL_Driver/Src/stm32u5xx_hal.c ****   *          This parameter can be one of the following values:
 590:Drivers/STM32U5xx_HAL_Driver/Src/stm32u5xx_hal.c ****   *            @arg SYSCFG_VREFBUF_VOLTAGE_SCALE0: VREF_OUT1 around 1.5 V.
 591:Drivers/STM32U5xx_HAL_Driver/Src/stm32u5xx_hal.c ****   *                                                This requires VDDA equal to or higher than 1.8 V
 592:Drivers/STM32U5xx_HAL_Driver/Src/stm32u5xx_hal.c ****   *            @arg SYSCFG_VREFBUF_VOLTAGE_SCALE1: VREF_OUT1 around 1.8 V.
 593:Drivers/STM32U5xx_HAL_Driver/Src/stm32u5xx_hal.c ****   *                                                This requires VDDA equal to or higher than 2.1 V
 594:Drivers/STM32U5xx_HAL_Driver/Src/stm32u5xx_hal.c ****   *            @arg SYSCFG_VREFBUF_VOLTAGE_SCALE2: VREF_OUT1 around 2.048 V.
 595:Drivers/STM32U5xx_HAL_Driver/Src/stm32u5xx_hal.c ****   *                                                This requires VDDA equal to or higher than 2.4 V
 596:Drivers/STM32U5xx_HAL_Driver/Src/stm32u5xx_hal.c ****   *            @arg SYSCFG_VREFBUF_VOLTAGE_SCALE3: VREF_OUT1 around 2.5 V.
 597:Drivers/STM32U5xx_HAL_Driver/Src/stm32u5xx_hal.c ****   *                                                This requires VDDA equal to or higher than 2.8 V
 598:Drivers/STM32U5xx_HAL_Driver/Src/stm32u5xx_hal.c ****   * @retval None
 599:Drivers/STM32U5xx_HAL_Driver/Src/stm32u5xx_hal.c ****   */
 600:Drivers/STM32U5xx_HAL_Driver/Src/stm32u5xx_hal.c **** void HAL_SYSCFG_VREFBUF_VoltageScalingConfig(uint32_t VoltageScaling)
 601:Drivers/STM32U5xx_HAL_Driver/Src/stm32u5xx_hal.c **** {
 950              		.loc 1 601 1 is_stmt 1 view -0
 951              		.cfi_startproc
 952              		@ args = 0, pretend = 0, frame = 0
 953              		@ frame_needed = 0, uses_anonymous_args = 0
 954              		@ link register save eliminated.
 602:Drivers/STM32U5xx_HAL_Driver/Src/stm32u5xx_hal.c ****   /* Check the parameters */
 603:Drivers/STM32U5xx_HAL_Driver/Src/stm32u5xx_hal.c ****   assert_param(IS_SYSCFG_VREFBUF_VOLTAGE_SCALE(VoltageScaling));
 955              		.loc 1 603 3 view .LVU190
 604:Drivers/STM32U5xx_HAL_Driver/Src/stm32u5xx_hal.c **** 
 605:Drivers/STM32U5xx_HAL_Driver/Src/stm32u5xx_hal.c ****   MODIFY_REG(VREFBUF->CSR, VREFBUF_CSR_VRS, VoltageScaling);
 956              		.loc 1 605 3 view .LVU191
 957 0000 034A     		ldr	r2, .L84
 958 0002 1368     		ldr	r3, [r2]
ARM GAS  /tmp/ccepBsJ5.s 			page 29


 959 0004 23F07003 		bic	r3, r3, #112
 960 0008 0343     		orrs	r3, r3, r0
 961 000a 1360     		str	r3, [r2]
 606:Drivers/STM32U5xx_HAL_Driver/Src/stm32u5xx_hal.c **** }
 962              		.loc 1 606 1 is_stmt 0 view .LVU192
 963 000c 7047     		bx	lr
 964              	.L85:
 965 000e 00BF     		.align	2
 966              	.L84:
 967 0010 00740046 		.word	1174434816
 968              		.cfi_endproc
 969              	.LFE180:
 971              		.section	.text.HAL_SYSCFG_VREFBUF_HighImpedanceConfig,"ax",%progbits
 972              		.align	1
 973              		.global	HAL_SYSCFG_VREFBUF_HighImpedanceConfig
 974              		.syntax unified
 975              		.thumb
 976              		.thumb_func
 978              	HAL_SYSCFG_VREFBUF_HighImpedanceConfig:
 979              	.LVL34:
 980              	.LFB181:
 607:Drivers/STM32U5xx_HAL_Driver/Src/stm32u5xx_hal.c **** 
 608:Drivers/STM32U5xx_HAL_Driver/Src/stm32u5xx_hal.c **** /**
 609:Drivers/STM32U5xx_HAL_Driver/Src/stm32u5xx_hal.c ****   * @brief Configure the internal voltage reference buffer high impedance mode.
 610:Drivers/STM32U5xx_HAL_Driver/Src/stm32u5xx_hal.c ****   * @param  Mode: specifies the high impedance mode
 611:Drivers/STM32U5xx_HAL_Driver/Src/stm32u5xx_hal.c ****   *          This parameter can be one of the following values:
 612:Drivers/STM32U5xx_HAL_Driver/Src/stm32u5xx_hal.c ****   *            @arg SYSCFG_VREFBUF_HIGH_IMPEDANCE_DISABLE: VREF+ pin is internally connect to VREFI
 613:Drivers/STM32U5xx_HAL_Driver/Src/stm32u5xx_hal.c ****   *            @arg SYSCFG_VREFBUF_HIGH_IMPEDANCE_ENABLE: VREF+ pin is high impedance.
 614:Drivers/STM32U5xx_HAL_Driver/Src/stm32u5xx_hal.c ****   * @retval None
 615:Drivers/STM32U5xx_HAL_Driver/Src/stm32u5xx_hal.c ****   */
 616:Drivers/STM32U5xx_HAL_Driver/Src/stm32u5xx_hal.c **** void HAL_SYSCFG_VREFBUF_HighImpedanceConfig(uint32_t Mode)
 617:Drivers/STM32U5xx_HAL_Driver/Src/stm32u5xx_hal.c **** {
 981              		.loc 1 617 1 is_stmt 1 view -0
 982              		.cfi_startproc
 983              		@ args = 0, pretend = 0, frame = 0
 984              		@ frame_needed = 0, uses_anonymous_args = 0
 985              		@ link register save eliminated.
 618:Drivers/STM32U5xx_HAL_Driver/Src/stm32u5xx_hal.c ****   /* Check the parameters */
 619:Drivers/STM32U5xx_HAL_Driver/Src/stm32u5xx_hal.c ****   assert_param(IS_SYSCFG_VREFBUF_HIGH_IMPEDANCE(Mode));
 986              		.loc 1 619 3 view .LVU194
 620:Drivers/STM32U5xx_HAL_Driver/Src/stm32u5xx_hal.c **** 
 621:Drivers/STM32U5xx_HAL_Driver/Src/stm32u5xx_hal.c ****   MODIFY_REG(VREFBUF->CSR, VREFBUF_CSR_HIZ, Mode);
 987              		.loc 1 621 3 view .LVU195
 988 0000 034A     		ldr	r2, .L87
 989 0002 1368     		ldr	r3, [r2]
 990 0004 23F00203 		bic	r3, r3, #2
 991 0008 0343     		orrs	r3, r3, r0
 992 000a 1360     		str	r3, [r2]
 622:Drivers/STM32U5xx_HAL_Driver/Src/stm32u5xx_hal.c **** }
 993              		.loc 1 622 1 is_stmt 0 view .LVU196
 994 000c 7047     		bx	lr
 995              	.L88:
 996 000e 00BF     		.align	2
 997              	.L87:
 998 0010 00740046 		.word	1174434816
 999              		.cfi_endproc
 1000              	.LFE181:
ARM GAS  /tmp/ccepBsJ5.s 			page 30


 1002              		.section	.text.HAL_SYSCFG_VREFBUF_TrimmingConfig,"ax",%progbits
 1003              		.align	1
 1004              		.global	HAL_SYSCFG_VREFBUF_TrimmingConfig
 1005              		.syntax unified
 1006              		.thumb
 1007              		.thumb_func
 1009              	HAL_SYSCFG_VREFBUF_TrimmingConfig:
 1010              	.LVL35:
 1011              	.LFB182:
 623:Drivers/STM32U5xx_HAL_Driver/Src/stm32u5xx_hal.c **** 
 624:Drivers/STM32U5xx_HAL_Driver/Src/stm32u5xx_hal.c **** /**
 625:Drivers/STM32U5xx_HAL_Driver/Src/stm32u5xx_hal.c ****   * @brief  Tune the Internal Voltage Reference buffer (VREFBUF).
 626:Drivers/STM32U5xx_HAL_Driver/Src/stm32u5xx_hal.c ****   * @retval None
 627:Drivers/STM32U5xx_HAL_Driver/Src/stm32u5xx_hal.c ****   */
 628:Drivers/STM32U5xx_HAL_Driver/Src/stm32u5xx_hal.c **** void HAL_SYSCFG_VREFBUF_TrimmingConfig(uint32_t TrimmingValue)
 629:Drivers/STM32U5xx_HAL_Driver/Src/stm32u5xx_hal.c **** {
 1012              		.loc 1 629 1 is_stmt 1 view -0
 1013              		.cfi_startproc
 1014              		@ args = 0, pretend = 0, frame = 0
 1015              		@ frame_needed = 0, uses_anonymous_args = 0
 1016              		@ link register save eliminated.
 630:Drivers/STM32U5xx_HAL_Driver/Src/stm32u5xx_hal.c ****   /* Check the parameters */
 631:Drivers/STM32U5xx_HAL_Driver/Src/stm32u5xx_hal.c ****   assert_param(IS_SYSCFG_VREFBUF_TRIMMING(TrimmingValue));
 1017              		.loc 1 631 3 view .LVU198
 632:Drivers/STM32U5xx_HAL_Driver/Src/stm32u5xx_hal.c **** 
 633:Drivers/STM32U5xx_HAL_Driver/Src/stm32u5xx_hal.c ****   MODIFY_REG(VREFBUF->CCR, VREFBUF_CCR_TRIM, TrimmingValue);
 1018              		.loc 1 633 3 view .LVU199
 1019 0000 034A     		ldr	r2, .L90
 1020 0002 5368     		ldr	r3, [r2, #4]
 1021 0004 23F03F03 		bic	r3, r3, #63
 1022 0008 0343     		orrs	r3, r3, r0
 1023 000a 5360     		str	r3, [r2, #4]
 634:Drivers/STM32U5xx_HAL_Driver/Src/stm32u5xx_hal.c **** }
 1024              		.loc 1 634 1 is_stmt 0 view .LVU200
 1025 000c 7047     		bx	lr
 1026              	.L91:
 1027 000e 00BF     		.align	2
 1028              	.L90:
 1029 0010 00740046 		.word	1174434816
 1030              		.cfi_endproc
 1031              	.LFE182:
 1033              		.section	.text.HAL_SYSCFG_EnableVREFBUF,"ax",%progbits
 1034              		.align	1
 1035              		.global	HAL_SYSCFG_EnableVREFBUF
 1036              		.syntax unified
 1037              		.thumb
 1038              		.thumb_func
 1040              	HAL_SYSCFG_EnableVREFBUF:
 1041              	.LFB183:
 635:Drivers/STM32U5xx_HAL_Driver/Src/stm32u5xx_hal.c **** 
 636:Drivers/STM32U5xx_HAL_Driver/Src/stm32u5xx_hal.c **** /**
 637:Drivers/STM32U5xx_HAL_Driver/Src/stm32u5xx_hal.c ****   * @brief  Enable the Internal Voltage Reference buffer (VREFBUF).
 638:Drivers/STM32U5xx_HAL_Driver/Src/stm32u5xx_hal.c ****   * @retval HAL_OK/HAL_TIMEOUT
 639:Drivers/STM32U5xx_HAL_Driver/Src/stm32u5xx_hal.c ****   */
 640:Drivers/STM32U5xx_HAL_Driver/Src/stm32u5xx_hal.c **** HAL_StatusTypeDef HAL_SYSCFG_EnableVREFBUF(void)
 641:Drivers/STM32U5xx_HAL_Driver/Src/stm32u5xx_hal.c **** {
 1042              		.loc 1 641 1 is_stmt 1 view -0
ARM GAS  /tmp/ccepBsJ5.s 			page 31


 1043              		.cfi_startproc
 1044              		@ args = 0, pretend = 0, frame = 0
 1045              		@ frame_needed = 0, uses_anonymous_args = 0
 1046 0000 10B5     		push	{r4, lr}
 1047              	.LCFI5:
 1048              		.cfi_def_cfa_offset 8
 1049              		.cfi_offset 4, -8
 1050              		.cfi_offset 14, -4
 642:Drivers/STM32U5xx_HAL_Driver/Src/stm32u5xx_hal.c ****   uint32_t  tickstart;
 1051              		.loc 1 642 3 view .LVU202
 643:Drivers/STM32U5xx_HAL_Driver/Src/stm32u5xx_hal.c **** 
 644:Drivers/STM32U5xx_HAL_Driver/Src/stm32u5xx_hal.c ****   SET_BIT(VREFBUF->CSR, VREFBUF_CSR_ENVR);
 1052              		.loc 1 644 3 view .LVU203
 1053 0002 0B4A     		ldr	r2, .L99
 1054 0004 1368     		ldr	r3, [r2]
 1055 0006 43F00103 		orr	r3, r3, #1
 1056 000a 1360     		str	r3, [r2]
 645:Drivers/STM32U5xx_HAL_Driver/Src/stm32u5xx_hal.c **** 
 646:Drivers/STM32U5xx_HAL_Driver/Src/stm32u5xx_hal.c ****   /* Get Start Tick*/
 647:Drivers/STM32U5xx_HAL_Driver/Src/stm32u5xx_hal.c ****   tickstart = HAL_GetTick();
 1057              		.loc 1 647 3 view .LVU204
 1058              		.loc 1 647 15 is_stmt 0 view .LVU205
 1059 000c FFF7FEFF 		bl	HAL_GetTick
 1060              	.LVL36:
 1061 0010 0446     		mov	r4, r0
 1062              	.LVL37:
 648:Drivers/STM32U5xx_HAL_Driver/Src/stm32u5xx_hal.c **** 
 649:Drivers/STM32U5xx_HAL_Driver/Src/stm32u5xx_hal.c ****   /* Wait for VRR bit  */
 650:Drivers/STM32U5xx_HAL_Driver/Src/stm32u5xx_hal.c ****   while (READ_BIT(VREFBUF->CSR, VREFBUF_CSR_VRR) == 0UL)
 1063              		.loc 1 650 3 is_stmt 1 view .LVU206
 1064              	.L93:
 1065              		.loc 1 650 50 view .LVU207
 1066              		.loc 1 650 10 is_stmt 0 view .LVU208
 1067 0012 074B     		ldr	r3, .L99
 1068 0014 1B68     		ldr	r3, [r3]
 1069              		.loc 1 650 50 view .LVU209
 1070 0016 13F0080F 		tst	r3, #8
 1071 001a 06D1     		bne	.L98
 651:Drivers/STM32U5xx_HAL_Driver/Src/stm32u5xx_hal.c ****   {
 652:Drivers/STM32U5xx_HAL_Driver/Src/stm32u5xx_hal.c ****     if ((HAL_GetTick() - tickstart) > VREFBUF_TIMEOUT_VALUE)
 1072              		.loc 1 652 5 is_stmt 1 view .LVU210
 1073              		.loc 1 652 10 is_stmt 0 view .LVU211
 1074 001c FFF7FEFF 		bl	HAL_GetTick
 1075              	.LVL38:
 1076              		.loc 1 652 24 discriminator 1 view .LVU212
 1077 0020 001B     		subs	r0, r0, r4
 1078              		.loc 1 652 8 discriminator 1 view .LVU213
 1079 0022 0A28     		cmp	r0, #10
 1080 0024 F5D9     		bls	.L93
 653:Drivers/STM32U5xx_HAL_Driver/Src/stm32u5xx_hal.c ****     {
 654:Drivers/STM32U5xx_HAL_Driver/Src/stm32u5xx_hal.c ****       return HAL_TIMEOUT;
 1081              		.loc 1 654 14 view .LVU214
 1082 0026 0320     		movs	r0, #3
 1083 0028 00E0     		b	.L94
 1084              	.L98:
 655:Drivers/STM32U5xx_HAL_Driver/Src/stm32u5xx_hal.c ****     }
 656:Drivers/STM32U5xx_HAL_Driver/Src/stm32u5xx_hal.c ****   }
ARM GAS  /tmp/ccepBsJ5.s 			page 32


 657:Drivers/STM32U5xx_HAL_Driver/Src/stm32u5xx_hal.c **** 
 658:Drivers/STM32U5xx_HAL_Driver/Src/stm32u5xx_hal.c ****   return HAL_OK;
 1085              		.loc 1 658 10 view .LVU215
 1086 002a 0020     		movs	r0, #0
 1087              	.L94:
 659:Drivers/STM32U5xx_HAL_Driver/Src/stm32u5xx_hal.c **** }
 1088              		.loc 1 659 1 view .LVU216
 1089 002c 10BD     		pop	{r4, pc}
 1090              	.LVL39:
 1091              	.L100:
 1092              		.loc 1 659 1 view .LVU217
 1093 002e 00BF     		.align	2
 1094              	.L99:
 1095 0030 00740046 		.word	1174434816
 1096              		.cfi_endproc
 1097              	.LFE183:
 1099              		.section	.text.HAL_SYSCFG_DisableVREFBUF,"ax",%progbits
 1100              		.align	1
 1101              		.global	HAL_SYSCFG_DisableVREFBUF
 1102              		.syntax unified
 1103              		.thumb
 1104              		.thumb_func
 1106              	HAL_SYSCFG_DisableVREFBUF:
 1107              	.LFB184:
 660:Drivers/STM32U5xx_HAL_Driver/Src/stm32u5xx_hal.c **** 
 661:Drivers/STM32U5xx_HAL_Driver/Src/stm32u5xx_hal.c **** /**
 662:Drivers/STM32U5xx_HAL_Driver/Src/stm32u5xx_hal.c ****   * @brief  Disable the Internal Voltage Reference buffer (VREFBUF).
 663:Drivers/STM32U5xx_HAL_Driver/Src/stm32u5xx_hal.c ****   *
 664:Drivers/STM32U5xx_HAL_Driver/Src/stm32u5xx_hal.c ****   * @retval None
 665:Drivers/STM32U5xx_HAL_Driver/Src/stm32u5xx_hal.c ****   */
 666:Drivers/STM32U5xx_HAL_Driver/Src/stm32u5xx_hal.c **** void HAL_SYSCFG_DisableVREFBUF(void)
 667:Drivers/STM32U5xx_HAL_Driver/Src/stm32u5xx_hal.c **** {
 1108              		.loc 1 667 1 is_stmt 1 view -0
 1109              		.cfi_startproc
 1110              		@ args = 0, pretend = 0, frame = 0
 1111              		@ frame_needed = 0, uses_anonymous_args = 0
 1112              		@ link register save eliminated.
 668:Drivers/STM32U5xx_HAL_Driver/Src/stm32u5xx_hal.c ****   CLEAR_BIT(VREFBUF->CSR, VREFBUF_CSR_ENVR);
 1113              		.loc 1 668 3 view .LVU219
 1114 0000 024A     		ldr	r2, .L102
 1115 0002 1368     		ldr	r3, [r2]
 1116 0004 23F00103 		bic	r3, r3, #1
 1117 0008 1360     		str	r3, [r2]
 669:Drivers/STM32U5xx_HAL_Driver/Src/stm32u5xx_hal.c **** }
 1118              		.loc 1 669 1 is_stmt 0 view .LVU220
 1119 000a 7047     		bx	lr
 1120              	.L103:
 1121              		.align	2
 1122              	.L102:
 1123 000c 00740046 		.word	1174434816
 1124              		.cfi_endproc
 1125              	.LFE184:
 1127              		.section	.text.HAL_SYSCFG_EnableIOAnalogBooster,"ax",%progbits
 1128              		.align	1
 1129              		.global	HAL_SYSCFG_EnableIOAnalogBooster
 1130              		.syntax unified
 1131              		.thumb
ARM GAS  /tmp/ccepBsJ5.s 			page 33


 1132              		.thumb_func
 1134              	HAL_SYSCFG_EnableIOAnalogBooster:
 1135              	.LFB185:
 670:Drivers/STM32U5xx_HAL_Driver/Src/stm32u5xx_hal.c **** 
 671:Drivers/STM32U5xx_HAL_Driver/Src/stm32u5xx_hal.c **** /**
 672:Drivers/STM32U5xx_HAL_Driver/Src/stm32u5xx_hal.c ****   * @brief  Enable the I/O analog switch voltage booster
 673:Drivers/STM32U5xx_HAL_Driver/Src/stm32u5xx_hal.c ****   *
 674:Drivers/STM32U5xx_HAL_Driver/Src/stm32u5xx_hal.c ****   * @retval None
 675:Drivers/STM32U5xx_HAL_Driver/Src/stm32u5xx_hal.c ****   */
 676:Drivers/STM32U5xx_HAL_Driver/Src/stm32u5xx_hal.c **** void HAL_SYSCFG_EnableIOAnalogBooster(void)
 677:Drivers/STM32U5xx_HAL_Driver/Src/stm32u5xx_hal.c **** {
 1136              		.loc 1 677 1 is_stmt 1 view -0
 1137              		.cfi_startproc
 1138              		@ args = 0, pretend = 0, frame = 0
 1139              		@ frame_needed = 0, uses_anonymous_args = 0
 1140              		@ link register save eliminated.
 678:Drivers/STM32U5xx_HAL_Driver/Src/stm32u5xx_hal.c ****   SET_BIT(SYSCFG->CFGR1, SYSCFG_CFGR1_BOOSTEN);
 1141              		.loc 1 678 3 view .LVU222
 1142 0000 024A     		ldr	r2, .L105
 1143 0002 5368     		ldr	r3, [r2, #4]
 1144 0004 43F48073 		orr	r3, r3, #256
 1145 0008 5360     		str	r3, [r2, #4]
 679:Drivers/STM32U5xx_HAL_Driver/Src/stm32u5xx_hal.c **** }
 1146              		.loc 1 679 1 is_stmt 0 view .LVU223
 1147 000a 7047     		bx	lr
 1148              	.L106:
 1149              		.align	2
 1150              	.L105:
 1151 000c 00040046 		.word	1174406144
 1152              		.cfi_endproc
 1153              	.LFE185:
 1155              		.section	.text.HAL_SYSCFG_DisableIOAnalogBooster,"ax",%progbits
 1156              		.align	1
 1157              		.global	HAL_SYSCFG_DisableIOAnalogBooster
 1158              		.syntax unified
 1159              		.thumb
 1160              		.thumb_func
 1162              	HAL_SYSCFG_DisableIOAnalogBooster:
 1163              	.LFB186:
 680:Drivers/STM32U5xx_HAL_Driver/Src/stm32u5xx_hal.c **** 
 681:Drivers/STM32U5xx_HAL_Driver/Src/stm32u5xx_hal.c **** /**
 682:Drivers/STM32U5xx_HAL_Driver/Src/stm32u5xx_hal.c ****   * @brief  Disable the I/O analog switch voltage booster
 683:Drivers/STM32U5xx_HAL_Driver/Src/stm32u5xx_hal.c ****   *
 684:Drivers/STM32U5xx_HAL_Driver/Src/stm32u5xx_hal.c ****   * @retval None
 685:Drivers/STM32U5xx_HAL_Driver/Src/stm32u5xx_hal.c ****   */
 686:Drivers/STM32U5xx_HAL_Driver/Src/stm32u5xx_hal.c **** void HAL_SYSCFG_DisableIOAnalogBooster(void)
 687:Drivers/STM32U5xx_HAL_Driver/Src/stm32u5xx_hal.c **** {
 1164              		.loc 1 687 1 is_stmt 1 view -0
 1165              		.cfi_startproc
 1166              		@ args = 0, pretend = 0, frame = 0
 1167              		@ frame_needed = 0, uses_anonymous_args = 0
 1168              		@ link register save eliminated.
 688:Drivers/STM32U5xx_HAL_Driver/Src/stm32u5xx_hal.c ****   CLEAR_BIT(SYSCFG->CFGR1, SYSCFG_CFGR1_BOOSTEN);
 1169              		.loc 1 688 3 view .LVU225
 1170 0000 024A     		ldr	r2, .L108
 1171 0002 5368     		ldr	r3, [r2, #4]
 1172 0004 23F48073 		bic	r3, r3, #256
ARM GAS  /tmp/ccepBsJ5.s 			page 34


 1173 0008 5360     		str	r3, [r2, #4]
 689:Drivers/STM32U5xx_HAL_Driver/Src/stm32u5xx_hal.c **** }
 1174              		.loc 1 689 1 is_stmt 0 view .LVU226
 1175 000a 7047     		bx	lr
 1176              	.L109:
 1177              		.align	2
 1178              	.L108:
 1179 000c 00040046 		.word	1174406144
 1180              		.cfi_endproc
 1181              	.LFE186:
 1183              		.section	.text.HAL_SYSCFG_EnableIOAnalogVoltageSelection,"ax",%progbits
 1184              		.align	1
 1185              		.global	HAL_SYSCFG_EnableIOAnalogVoltageSelection
 1186              		.syntax unified
 1187              		.thumb
 1188              		.thumb_func
 1190              	HAL_SYSCFG_EnableIOAnalogVoltageSelection:
 1191              	.LFB187:
 690:Drivers/STM32U5xx_HAL_Driver/Src/stm32u5xx_hal.c **** 
 691:Drivers/STM32U5xx_HAL_Driver/Src/stm32u5xx_hal.c **** /**
 692:Drivers/STM32U5xx_HAL_Driver/Src/stm32u5xx_hal.c ****   * @brief  Enable the I/O analog switch voltage selection
 693:Drivers/STM32U5xx_HAL_Driver/Src/stm32u5xx_hal.c ****   *
 694:Drivers/STM32U5xx_HAL_Driver/Src/stm32u5xx_hal.c ****   * @retval None
 695:Drivers/STM32U5xx_HAL_Driver/Src/stm32u5xx_hal.c ****   */
 696:Drivers/STM32U5xx_HAL_Driver/Src/stm32u5xx_hal.c **** void HAL_SYSCFG_EnableIOAnalogVoltageSelection(void)
 697:Drivers/STM32U5xx_HAL_Driver/Src/stm32u5xx_hal.c **** {
 1192              		.loc 1 697 1 is_stmt 1 view -0
 1193              		.cfi_startproc
 1194              		@ args = 0, pretend = 0, frame = 0
 1195              		@ frame_needed = 0, uses_anonymous_args = 0
 1196              		@ link register save eliminated.
 698:Drivers/STM32U5xx_HAL_Driver/Src/stm32u5xx_hal.c ****   SET_BIT(SYSCFG->CFGR1, SYSCFG_CFGR1_ANASWVDD);
 1197              		.loc 1 698 3 view .LVU228
 1198 0000 024A     		ldr	r2, .L111
 1199 0002 5368     		ldr	r3, [r2, #4]
 1200 0004 43F40073 		orr	r3, r3, #512
 1201 0008 5360     		str	r3, [r2, #4]
 699:Drivers/STM32U5xx_HAL_Driver/Src/stm32u5xx_hal.c **** }
 1202              		.loc 1 699 1 is_stmt 0 view .LVU229
 1203 000a 7047     		bx	lr
 1204              	.L112:
 1205              		.align	2
 1206              	.L111:
 1207 000c 00040046 		.word	1174406144
 1208              		.cfi_endproc
 1209              	.LFE187:
 1211              		.section	.text.HAL_SYSCFG_DisableIOAnalogVoltageSelection,"ax",%progbits
 1212              		.align	1
 1213              		.global	HAL_SYSCFG_DisableIOAnalogVoltageSelection
 1214              		.syntax unified
 1215              		.thumb
 1216              		.thumb_func
 1218              	HAL_SYSCFG_DisableIOAnalogVoltageSelection:
 1219              	.LFB188:
 700:Drivers/STM32U5xx_HAL_Driver/Src/stm32u5xx_hal.c **** 
 701:Drivers/STM32U5xx_HAL_Driver/Src/stm32u5xx_hal.c **** /**
 702:Drivers/STM32U5xx_HAL_Driver/Src/stm32u5xx_hal.c ****   * @brief  Disable the I/O analog switch voltage selection
ARM GAS  /tmp/ccepBsJ5.s 			page 35


 703:Drivers/STM32U5xx_HAL_Driver/Src/stm32u5xx_hal.c ****   *
 704:Drivers/STM32U5xx_HAL_Driver/Src/stm32u5xx_hal.c ****   * @retval None
 705:Drivers/STM32U5xx_HAL_Driver/Src/stm32u5xx_hal.c ****   */
 706:Drivers/STM32U5xx_HAL_Driver/Src/stm32u5xx_hal.c **** void HAL_SYSCFG_DisableIOAnalogVoltageSelection(void)
 707:Drivers/STM32U5xx_HAL_Driver/Src/stm32u5xx_hal.c **** {
 1220              		.loc 1 707 1 is_stmt 1 view -0
 1221              		.cfi_startproc
 1222              		@ args = 0, pretend = 0, frame = 0
 1223              		@ frame_needed = 0, uses_anonymous_args = 0
 1224              		@ link register save eliminated.
 708:Drivers/STM32U5xx_HAL_Driver/Src/stm32u5xx_hal.c ****   CLEAR_BIT(SYSCFG->CFGR1, SYSCFG_CFGR1_ANASWVDD);
 1225              		.loc 1 708 3 view .LVU231
 1226 0000 024A     		ldr	r2, .L114
 1227 0002 5368     		ldr	r3, [r2, #4]
 1228 0004 23F40073 		bic	r3, r3, #512
 1229 0008 5360     		str	r3, [r2, #4]
 709:Drivers/STM32U5xx_HAL_Driver/Src/stm32u5xx_hal.c **** }
 1230              		.loc 1 709 1 is_stmt 0 view .LVU232
 1231 000a 7047     		bx	lr
 1232              	.L115:
 1233              		.align	2
 1234              	.L114:
 1235 000c 00040046 		.word	1174406144
 1236              		.cfi_endproc
 1237              	.LFE188:
 1239              		.section	.text.HAL_SYSCFG_EnableVddCompensationCell,"ax",%progbits
 1240              		.align	1
 1241              		.global	HAL_SYSCFG_EnableVddCompensationCell
 1242              		.syntax unified
 1243              		.thumb
 1244              		.thumb_func
 1246              	HAL_SYSCFG_EnableVddCompensationCell:
 1247              	.LFB189:
 710:Drivers/STM32U5xx_HAL_Driver/Src/stm32u5xx_hal.c **** 
 711:Drivers/STM32U5xx_HAL_Driver/Src/stm32u5xx_hal.c **** #if defined(SYSCFG_CFGR1_ENDCAP)
 712:Drivers/STM32U5xx_HAL_Driver/Src/stm32u5xx_hal.c **** /**
 713:Drivers/STM32U5xx_HAL_Driver/Src/stm32u5xx_hal.c ****   * @brief  Set decoupling capacitance on HSPI supply.
 714:Drivers/STM32U5xx_HAL_Driver/Src/stm32u5xx_hal.c ****   * @rmtoll SYSCFG_CFGR1   ENDCAP   HAL_SYSCFG_SetHSPIDecouplingCapacitance
 715:Drivers/STM32U5xx_HAL_Driver/Src/stm32u5xx_hal.c ****   * @param  Capacitance This parameter can be one of the following values:
 716:Drivers/STM32U5xx_HAL_Driver/Src/stm32u5xx_hal.c ****   *         @arg @ref SYSCFG_HSPI_CAPACITANCE_OFF
 717:Drivers/STM32U5xx_HAL_Driver/Src/stm32u5xx_hal.c ****   *         @arg @ref SYSCFG_HSPI_CAPACITANCE_1_DIV_3
 718:Drivers/STM32U5xx_HAL_Driver/Src/stm32u5xx_hal.c ****   *         @arg @ref SYSCFG_HSPI_CAPACITANCE_2_DIV_3
 719:Drivers/STM32U5xx_HAL_Driver/Src/stm32u5xx_hal.c ****   *         @arg @ref SYSCFG_HSPI_CAPACITANCE_FULL
 720:Drivers/STM32U5xx_HAL_Driver/Src/stm32u5xx_hal.c ****   * @retval None
 721:Drivers/STM32U5xx_HAL_Driver/Src/stm32u5xx_hal.c ****   */
 722:Drivers/STM32U5xx_HAL_Driver/Src/stm32u5xx_hal.c **** void HAL_SYSCFG_SetHSPIDecouplingCapacitance(uint32_t Capacitance)
 723:Drivers/STM32U5xx_HAL_Driver/Src/stm32u5xx_hal.c **** {
 724:Drivers/STM32U5xx_HAL_Driver/Src/stm32u5xx_hal.c ****   /* Check the parameters */
 725:Drivers/STM32U5xx_HAL_Driver/Src/stm32u5xx_hal.c ****   assert_param(IS_SYSCFG_DECOUPLING_CAPACITANCE(Capacitance));
 726:Drivers/STM32U5xx_HAL_Driver/Src/stm32u5xx_hal.c **** 
 727:Drivers/STM32U5xx_HAL_Driver/Src/stm32u5xx_hal.c ****   MODIFY_REG(SYSCFG->CFGR1, SYSCFG_CFGR1_ENDCAP, Capacitance);
 728:Drivers/STM32U5xx_HAL_Driver/Src/stm32u5xx_hal.c **** }
 729:Drivers/STM32U5xx_HAL_Driver/Src/stm32u5xx_hal.c **** 
 730:Drivers/STM32U5xx_HAL_Driver/Src/stm32u5xx_hal.c **** /**
 731:Drivers/STM32U5xx_HAL_Driver/Src/stm32u5xx_hal.c ****   * @brief  Get decoupling capacitance on HSPI supply.
 732:Drivers/STM32U5xx_HAL_Driver/Src/stm32u5xx_hal.c ****   * @rmtoll SYSCFG_CFGR1   ENDCAP   HAL_SYSCFG_GetHSPIDecouplingCapacitance
 733:Drivers/STM32U5xx_HAL_Driver/Src/stm32u5xx_hal.c ****   * @retval Returned value can be one of the following values:
ARM GAS  /tmp/ccepBsJ5.s 			page 36


 734:Drivers/STM32U5xx_HAL_Driver/Src/stm32u5xx_hal.c ****   *         @arg @ref SYSCFG_HSPI_CAPACITANCE_OFF
 735:Drivers/STM32U5xx_HAL_Driver/Src/stm32u5xx_hal.c ****   *         @arg @ref SYSCFG_HSPI_CAPACITANCE_1_DIV_3
 736:Drivers/STM32U5xx_HAL_Driver/Src/stm32u5xx_hal.c ****   *         @arg @ref SYSCFG_HSPI_CAPACITANCE_2_DIV_3
 737:Drivers/STM32U5xx_HAL_Driver/Src/stm32u5xx_hal.c ****   *         @arg @ref SYSCFG_HSPI_CAPACITANCE_FULL
 738:Drivers/STM32U5xx_HAL_Driver/Src/stm32u5xx_hal.c ****   */
 739:Drivers/STM32U5xx_HAL_Driver/Src/stm32u5xx_hal.c **** uint32_t HAL_SYSCFG_GetHSPIDecouplingCapacitance(void)
 740:Drivers/STM32U5xx_HAL_Driver/Src/stm32u5xx_hal.c **** {
 741:Drivers/STM32U5xx_HAL_Driver/Src/stm32u5xx_hal.c ****   return (uint32_t)(READ_BIT(SYSCFG->CFGR1, SYSCFG_CFGR1_ENDCAP));
 742:Drivers/STM32U5xx_HAL_Driver/Src/stm32u5xx_hal.c **** }
 743:Drivers/STM32U5xx_HAL_Driver/Src/stm32u5xx_hal.c **** #endif /* SYSCFG_CFGR1_ENDCAP */
 744:Drivers/STM32U5xx_HAL_Driver/Src/stm32u5xx_hal.c **** 
 745:Drivers/STM32U5xx_HAL_Driver/Src/stm32u5xx_hal.c **** #if defined(SYSCFG_CFGR1_SRAMCACHED)
 746:Drivers/STM32U5xx_HAL_Driver/Src/stm32u5xx_hal.c **** /**
 747:Drivers/STM32U5xx_HAL_Driver/Src/stm32u5xx_hal.c ****   * @brief  Enable the Cacheability of internal SRAMx by DCACHE2
 748:Drivers/STM32U5xx_HAL_Driver/Src/stm32u5xx_hal.c ****   *
 749:Drivers/STM32U5xx_HAL_Driver/Src/stm32u5xx_hal.c ****   * @retval None
 750:Drivers/STM32U5xx_HAL_Driver/Src/stm32u5xx_hal.c ****   */
 751:Drivers/STM32U5xx_HAL_Driver/Src/stm32u5xx_hal.c **** void HAL_SYSCFG_EnableSRAMCached(void)
 752:Drivers/STM32U5xx_HAL_Driver/Src/stm32u5xx_hal.c **** {
 753:Drivers/STM32U5xx_HAL_Driver/Src/stm32u5xx_hal.c ****   SET_BIT(SYSCFG->CFGR1, SYSCFG_CFGR1_SRAMCACHED);
 754:Drivers/STM32U5xx_HAL_Driver/Src/stm32u5xx_hal.c **** }
 755:Drivers/STM32U5xx_HAL_Driver/Src/stm32u5xx_hal.c **** 
 756:Drivers/STM32U5xx_HAL_Driver/Src/stm32u5xx_hal.c **** /**
 757:Drivers/STM32U5xx_HAL_Driver/Src/stm32u5xx_hal.c ****   * @brief  Disable the Cacheability of internal SRAMx by DCACHE2
 758:Drivers/STM32U5xx_HAL_Driver/Src/stm32u5xx_hal.c ****   *
 759:Drivers/STM32U5xx_HAL_Driver/Src/stm32u5xx_hal.c ****   * @retval None
 760:Drivers/STM32U5xx_HAL_Driver/Src/stm32u5xx_hal.c ****   */
 761:Drivers/STM32U5xx_HAL_Driver/Src/stm32u5xx_hal.c **** void HAL_SYSCFG_DisableSRAMCached(void)
 762:Drivers/STM32U5xx_HAL_Driver/Src/stm32u5xx_hal.c **** {
 763:Drivers/STM32U5xx_HAL_Driver/Src/stm32u5xx_hal.c ****   CLEAR_BIT(SYSCFG->CFGR1, SYSCFG_CFGR1_SRAMCACHED);
 764:Drivers/STM32U5xx_HAL_Driver/Src/stm32u5xx_hal.c **** }
 765:Drivers/STM32U5xx_HAL_Driver/Src/stm32u5xx_hal.c **** #endif /* SYSCFG_CFGR1_SRAMCACHED */
 766:Drivers/STM32U5xx_HAL_Driver/Src/stm32u5xx_hal.c **** 
 767:Drivers/STM32U5xx_HAL_Driver/Src/stm32u5xx_hal.c **** /**
 768:Drivers/STM32U5xx_HAL_Driver/Src/stm32u5xx_hal.c ****   * @brief  Enable the Compensation Cell of GPIO supplied by VDD
 769:Drivers/STM32U5xx_HAL_Driver/Src/stm32u5xx_hal.c ****   * @rmtoll CCCSR   EN1    HAL_SYSCFG_EnableVddCompensationCell
 770:Drivers/STM32U5xx_HAL_Driver/Src/stm32u5xx_hal.c ****   * @note   The vdd compensation cell can be used only when the device supply
 771:Drivers/STM32U5xx_HAL_Driver/Src/stm32u5xx_hal.c ****   *         voltage ranges from 1.71 to 3.6 V
 772:Drivers/STM32U5xx_HAL_Driver/Src/stm32u5xx_hal.c ****   * @retval None
 773:Drivers/STM32U5xx_HAL_Driver/Src/stm32u5xx_hal.c ****   */
 774:Drivers/STM32U5xx_HAL_Driver/Src/stm32u5xx_hal.c **** void HAL_SYSCFG_EnableVddCompensationCell(void)
 775:Drivers/STM32U5xx_HAL_Driver/Src/stm32u5xx_hal.c **** {
 1248              		.loc 1 775 1 is_stmt 1 view -0
 1249              		.cfi_startproc
 1250              		@ args = 0, pretend = 0, frame = 0
 1251              		@ frame_needed = 0, uses_anonymous_args = 0
 1252              		@ link register save eliminated.
 776:Drivers/STM32U5xx_HAL_Driver/Src/stm32u5xx_hal.c ****   SET_BIT(SYSCFG->CCCSR, SYSCFG_CCCSR_EN1);
 1253              		.loc 1 776 3 view .LVU234
 1254 0000 024A     		ldr	r2, .L117
 1255 0002 D369     		ldr	r3, [r2, #28]
 1256 0004 43F00103 		orr	r3, r3, #1
 1257 0008 D361     		str	r3, [r2, #28]
 777:Drivers/STM32U5xx_HAL_Driver/Src/stm32u5xx_hal.c **** }
 1258              		.loc 1 777 1 is_stmt 0 view .LVU235
 1259 000a 7047     		bx	lr
 1260              	.L118:
ARM GAS  /tmp/ccepBsJ5.s 			page 37


 1261              		.align	2
 1262              	.L117:
 1263 000c 00040046 		.word	1174406144
 1264              		.cfi_endproc
 1265              	.LFE189:
 1267              		.section	.text.HAL_SYSCFG_EnableVddIO2CompensationCell,"ax",%progbits
 1268              		.align	1
 1269              		.global	HAL_SYSCFG_EnableVddIO2CompensationCell
 1270              		.syntax unified
 1271              		.thumb
 1272              		.thumb_func
 1274              	HAL_SYSCFG_EnableVddIO2CompensationCell:
 1275              	.LFB190:
 778:Drivers/STM32U5xx_HAL_Driver/Src/stm32u5xx_hal.c **** 
 779:Drivers/STM32U5xx_HAL_Driver/Src/stm32u5xx_hal.c **** /**
 780:Drivers/STM32U5xx_HAL_Driver/Src/stm32u5xx_hal.c ****   * @brief  Enable the Compensation Cell of GPIO supplied by VDDIO2
 781:Drivers/STM32U5xx_HAL_Driver/Src/stm32u5xx_hal.c ****   * @rmtoll CCCSR   EN2    HAL_SYSCFG_EnableVddIO2CompensationCell
 782:Drivers/STM32U5xx_HAL_Driver/Src/stm32u5xx_hal.c ****   * @note   The Vdd I/O compensation cell can be used only when the device supply
 783:Drivers/STM32U5xx_HAL_Driver/Src/stm32u5xx_hal.c ****   *         voltage ranges from 1.08 to 3.6 V
 784:Drivers/STM32U5xx_HAL_Driver/Src/stm32u5xx_hal.c ****   * @retval None
 785:Drivers/STM32U5xx_HAL_Driver/Src/stm32u5xx_hal.c ****   */
 786:Drivers/STM32U5xx_HAL_Driver/Src/stm32u5xx_hal.c **** void HAL_SYSCFG_EnableVddIO2CompensationCell(void)
 787:Drivers/STM32U5xx_HAL_Driver/Src/stm32u5xx_hal.c **** {
 1276              		.loc 1 787 1 is_stmt 1 view -0
 1277              		.cfi_startproc
 1278              		@ args = 0, pretend = 0, frame = 0
 1279              		@ frame_needed = 0, uses_anonymous_args = 0
 1280              		@ link register save eliminated.
 788:Drivers/STM32U5xx_HAL_Driver/Src/stm32u5xx_hal.c ****   SET_BIT(SYSCFG->CCCSR, SYSCFG_CCCSR_EN2);
 1281              		.loc 1 788 3 view .LVU237
 1282 0000 024A     		ldr	r2, .L120
 1283 0002 D369     		ldr	r3, [r2, #28]
 1284 0004 43F00403 		orr	r3, r3, #4
 1285 0008 D361     		str	r3, [r2, #28]
 789:Drivers/STM32U5xx_HAL_Driver/Src/stm32u5xx_hal.c **** }
 1286              		.loc 1 789 1 is_stmt 0 view .LVU238
 1287 000a 7047     		bx	lr
 1288              	.L121:
 1289              		.align	2
 1290              	.L120:
 1291 000c 00040046 		.word	1174406144
 1292              		.cfi_endproc
 1293              	.LFE190:
 1295              		.section	.text.HAL_SYSCFG_DisableVddCompensationCell,"ax",%progbits
 1296              		.align	1
 1297              		.global	HAL_SYSCFG_DisableVddCompensationCell
 1298              		.syntax unified
 1299              		.thumb
 1300              		.thumb_func
 1302              	HAL_SYSCFG_DisableVddCompensationCell:
 1303              	.LFB191:
 790:Drivers/STM32U5xx_HAL_Driver/Src/stm32u5xx_hal.c **** 
 791:Drivers/STM32U5xx_HAL_Driver/Src/stm32u5xx_hal.c **** #if defined(SYSCFG_CCCSR_EN3)
 792:Drivers/STM32U5xx_HAL_Driver/Src/stm32u5xx_hal.c **** /**
 793:Drivers/STM32U5xx_HAL_Driver/Src/stm32u5xx_hal.c ****   * @brief  Enable the Compensation Cell of HSPI IO supplied by VDD
 794:Drivers/STM32U5xx_HAL_Driver/Src/stm32u5xx_hal.c ****   * @rmtoll CCCSR   EN3    HAL_SYSCFG_EnableVddHSPICompensationCell
 795:Drivers/STM32U5xx_HAL_Driver/Src/stm32u5xx_hal.c ****   * @retval None
ARM GAS  /tmp/ccepBsJ5.s 			page 38


 796:Drivers/STM32U5xx_HAL_Driver/Src/stm32u5xx_hal.c ****   */
 797:Drivers/STM32U5xx_HAL_Driver/Src/stm32u5xx_hal.c **** void HAL_SYSCFG_EnableVddHSPICompensationCell(void)
 798:Drivers/STM32U5xx_HAL_Driver/Src/stm32u5xx_hal.c **** {
 799:Drivers/STM32U5xx_HAL_Driver/Src/stm32u5xx_hal.c ****   SET_BIT(SYSCFG->CCCSR, SYSCFG_CCCSR_EN3);
 800:Drivers/STM32U5xx_HAL_Driver/Src/stm32u5xx_hal.c **** }
 801:Drivers/STM32U5xx_HAL_Driver/Src/stm32u5xx_hal.c **** #endif /* SYSCFG_CCCSR_EN3 */
 802:Drivers/STM32U5xx_HAL_Driver/Src/stm32u5xx_hal.c **** 
 803:Drivers/STM32U5xx_HAL_Driver/Src/stm32u5xx_hal.c **** /**
 804:Drivers/STM32U5xx_HAL_Driver/Src/stm32u5xx_hal.c ****   * @brief  Disable the Compensation Cell of GPIO supplied by VDD
 805:Drivers/STM32U5xx_HAL_Driver/Src/stm32u5xx_hal.c ****   * @rmtoll CCCSR   EN1    HAL_SYSCFG_DisableVddCompensationCell
 806:Drivers/STM32U5xx_HAL_Driver/Src/stm32u5xx_hal.c ****   * @note   The Vdd compensation cell can be used only when the device supply
 807:Drivers/STM32U5xx_HAL_Driver/Src/stm32u5xx_hal.c ****   *         voltage ranges from 1.71 to 3.6 V
 808:Drivers/STM32U5xx_HAL_Driver/Src/stm32u5xx_hal.c ****   * @retval None
 809:Drivers/STM32U5xx_HAL_Driver/Src/stm32u5xx_hal.c ****   */
 810:Drivers/STM32U5xx_HAL_Driver/Src/stm32u5xx_hal.c **** void HAL_SYSCFG_DisableVddCompensationCell(void)
 811:Drivers/STM32U5xx_HAL_Driver/Src/stm32u5xx_hal.c **** {
 1304              		.loc 1 811 1 is_stmt 1 view -0
 1305              		.cfi_startproc
 1306              		@ args = 0, pretend = 0, frame = 0
 1307              		@ frame_needed = 0, uses_anonymous_args = 0
 1308              		@ link register save eliminated.
 812:Drivers/STM32U5xx_HAL_Driver/Src/stm32u5xx_hal.c ****   CLEAR_BIT(SYSCFG->CCCSR, SYSCFG_CCCSR_EN1);
 1309              		.loc 1 812 3 view .LVU240
 1310 0000 024A     		ldr	r2, .L123
 1311 0002 D369     		ldr	r3, [r2, #28]
 1312 0004 23F00103 		bic	r3, r3, #1
 1313 0008 D361     		str	r3, [r2, #28]
 813:Drivers/STM32U5xx_HAL_Driver/Src/stm32u5xx_hal.c **** }
 1314              		.loc 1 813 1 is_stmt 0 view .LVU241
 1315 000a 7047     		bx	lr
 1316              	.L124:
 1317              		.align	2
 1318              	.L123:
 1319 000c 00040046 		.word	1174406144
 1320              		.cfi_endproc
 1321              	.LFE191:
 1323              		.section	.text.HAL_SYSCFG_DisableVddIO2CompensationCell,"ax",%progbits
 1324              		.align	1
 1325              		.global	HAL_SYSCFG_DisableVddIO2CompensationCell
 1326              		.syntax unified
 1327              		.thumb
 1328              		.thumb_func
 1330              	HAL_SYSCFG_DisableVddIO2CompensationCell:
 1331              	.LFB192:
 814:Drivers/STM32U5xx_HAL_Driver/Src/stm32u5xx_hal.c **** 
 815:Drivers/STM32U5xx_HAL_Driver/Src/stm32u5xx_hal.c **** /**
 816:Drivers/STM32U5xx_HAL_Driver/Src/stm32u5xx_hal.c ****   * @brief  Disable the Compensation Cell of GPIO supplied by VDDIO2
 817:Drivers/STM32U5xx_HAL_Driver/Src/stm32u5xx_hal.c ****   * @rmtoll CCCSR   EN2    HAL_SYSCFG_DisableVddIO2CompensationCell
 818:Drivers/STM32U5xx_HAL_Driver/Src/stm32u5xx_hal.c ****   * @note   The Vdd I/O compensation cell can be used only when the device supply
 819:Drivers/STM32U5xx_HAL_Driver/Src/stm32u5xx_hal.c ****   *         voltage ranges from 1.08 to 3.6 V
 820:Drivers/STM32U5xx_HAL_Driver/Src/stm32u5xx_hal.c ****   * @retval None
 821:Drivers/STM32U5xx_HAL_Driver/Src/stm32u5xx_hal.c ****   */
 822:Drivers/STM32U5xx_HAL_Driver/Src/stm32u5xx_hal.c **** void HAL_SYSCFG_DisableVddIO2CompensationCell(void)
 823:Drivers/STM32U5xx_HAL_Driver/Src/stm32u5xx_hal.c **** {
 1332              		.loc 1 823 1 is_stmt 1 view -0
 1333              		.cfi_startproc
 1334              		@ args = 0, pretend = 0, frame = 0
ARM GAS  /tmp/ccepBsJ5.s 			page 39


 1335              		@ frame_needed = 0, uses_anonymous_args = 0
 1336              		@ link register save eliminated.
 824:Drivers/STM32U5xx_HAL_Driver/Src/stm32u5xx_hal.c ****   CLEAR_BIT(SYSCFG->CCCSR, SYSCFG_CCCSR_EN2);
 1337              		.loc 1 824 3 view .LVU243
 1338 0000 024A     		ldr	r2, .L126
 1339 0002 D369     		ldr	r3, [r2, #28]
 1340 0004 23F00403 		bic	r3, r3, #4
 1341 0008 D361     		str	r3, [r2, #28]
 825:Drivers/STM32U5xx_HAL_Driver/Src/stm32u5xx_hal.c **** }
 1342              		.loc 1 825 1 is_stmt 0 view .LVU244
 1343 000a 7047     		bx	lr
 1344              	.L127:
 1345              		.align	2
 1346              	.L126:
 1347 000c 00040046 		.word	1174406144
 1348              		.cfi_endproc
 1349              	.LFE192:
 1351              		.section	.text.HAL_SYSCFG_Lock,"ax",%progbits
 1352              		.align	1
 1353              		.global	HAL_SYSCFG_Lock
 1354              		.syntax unified
 1355              		.thumb
 1356              		.thumb_func
 1358              	HAL_SYSCFG_Lock:
 1359              	.LVL40:
 1360              	.LFB193:
 826:Drivers/STM32U5xx_HAL_Driver/Src/stm32u5xx_hal.c **** 
 827:Drivers/STM32U5xx_HAL_Driver/Src/stm32u5xx_hal.c **** #if defined(SYSCFG_CCCSR_EN3)
 828:Drivers/STM32U5xx_HAL_Driver/Src/stm32u5xx_hal.c **** /**
 829:Drivers/STM32U5xx_HAL_Driver/Src/stm32u5xx_hal.c ****   * @brief  Disable the Compensation Cell of HSPI IO supplied by VDD
 830:Drivers/STM32U5xx_HAL_Driver/Src/stm32u5xx_hal.c ****   * @rmtoll CCCSR   EN3    HAL_SYSCFG_DisableVddHSPICompensationCell
 831:Drivers/STM32U5xx_HAL_Driver/Src/stm32u5xx_hal.c ****   * @retval None
 832:Drivers/STM32U5xx_HAL_Driver/Src/stm32u5xx_hal.c ****   */
 833:Drivers/STM32U5xx_HAL_Driver/Src/stm32u5xx_hal.c **** void HAL_SYSCFG_DisableVddHSPICompensationCell(void)
 834:Drivers/STM32U5xx_HAL_Driver/Src/stm32u5xx_hal.c **** {
 835:Drivers/STM32U5xx_HAL_Driver/Src/stm32u5xx_hal.c ****   CLEAR_BIT(SYSCFG->CCCSR, SYSCFG_CCCSR_EN3);
 836:Drivers/STM32U5xx_HAL_Driver/Src/stm32u5xx_hal.c **** }
 837:Drivers/STM32U5xx_HAL_Driver/Src/stm32u5xx_hal.c **** #endif /* SYSCFG_CCCSR_EN3 */
 838:Drivers/STM32U5xx_HAL_Driver/Src/stm32u5xx_hal.c **** /**
 839:Drivers/STM32U5xx_HAL_Driver/Src/stm32u5xx_hal.c ****   * @}
 840:Drivers/STM32U5xx_HAL_Driver/Src/stm32u5xx_hal.c ****   */
 841:Drivers/STM32U5xx_HAL_Driver/Src/stm32u5xx_hal.c **** 
 842:Drivers/STM32U5xx_HAL_Driver/Src/stm32u5xx_hal.c **** /** @defgroup HAL_Exported_Functions_Group5 HAL SYSCFG lock management functions
 843:Drivers/STM32U5xx_HAL_Driver/Src/stm32u5xx_hal.c ****   *  @brief SYSCFG lock management functions.
 844:Drivers/STM32U5xx_HAL_Driver/Src/stm32u5xx_hal.c ****   *
 845:Drivers/STM32U5xx_HAL_Driver/Src/stm32u5xx_hal.c **** @verbatim
 846:Drivers/STM32U5xx_HAL_Driver/Src/stm32u5xx_hal.c ****  ===============================================================================
 847:Drivers/STM32U5xx_HAL_Driver/Src/stm32u5xx_hal.c ****                        ##### SYSCFG lock functions #####
 848:Drivers/STM32U5xx_HAL_Driver/Src/stm32u5xx_hal.c ****  ===============================================================================
 849:Drivers/STM32U5xx_HAL_Driver/Src/stm32u5xx_hal.c **** 
 850:Drivers/STM32U5xx_HAL_Driver/Src/stm32u5xx_hal.c **** @endverbatim
 851:Drivers/STM32U5xx_HAL_Driver/Src/stm32u5xx_hal.c ****   * @{
 852:Drivers/STM32U5xx_HAL_Driver/Src/stm32u5xx_hal.c ****   */
 853:Drivers/STM32U5xx_HAL_Driver/Src/stm32u5xx_hal.c **** 
 854:Drivers/STM32U5xx_HAL_Driver/Src/stm32u5xx_hal.c **** /**
 855:Drivers/STM32U5xx_HAL_Driver/Src/stm32u5xx_hal.c ****   * @brief  Lock the SYSCFG item(s).
 856:Drivers/STM32U5xx_HAL_Driver/Src/stm32u5xx_hal.c ****   * @note   Setting lock(s) depends on privilege mode in secure/non-secure code
ARM GAS  /tmp/ccepBsJ5.s 			page 40


 857:Drivers/STM32U5xx_HAL_Driver/Src/stm32u5xx_hal.c ****   *         Lock(s) cleared only at system reset
 858:Drivers/STM32U5xx_HAL_Driver/Src/stm32u5xx_hal.c ****   * @param  Item Item(s) to set lock on.
 859:Drivers/STM32U5xx_HAL_Driver/Src/stm32u5xx_hal.c ****   *         This parameter can be a combination of @ref SYSCFG_Lock_items
 860:Drivers/STM32U5xx_HAL_Driver/Src/stm32u5xx_hal.c ****   * @retval None
 861:Drivers/STM32U5xx_HAL_Driver/Src/stm32u5xx_hal.c ****   */
 862:Drivers/STM32U5xx_HAL_Driver/Src/stm32u5xx_hal.c **** void HAL_SYSCFG_Lock(uint32_t Item)
 863:Drivers/STM32U5xx_HAL_Driver/Src/stm32u5xx_hal.c **** {
 1361              		.loc 1 863 1 is_stmt 1 view -0
 1362              		.cfi_startproc
 1363              		@ args = 0, pretend = 0, frame = 0
 1364              		@ frame_needed = 0, uses_anonymous_args = 0
 1365              		@ link register save eliminated.
 864:Drivers/STM32U5xx_HAL_Driver/Src/stm32u5xx_hal.c ****   /* Check the parameters */
 865:Drivers/STM32U5xx_HAL_Driver/Src/stm32u5xx_hal.c ****   assert_param(IS_SYSCFG_LOCK_ITEMS(Item));
 1366              		.loc 1 865 3 view .LVU246
 866:Drivers/STM32U5xx_HAL_Driver/Src/stm32u5xx_hal.c **** 
 867:Drivers/STM32U5xx_HAL_Driver/Src/stm32u5xx_hal.c ****   /* Privilege secure/non-secure locks */
 868:Drivers/STM32U5xx_HAL_Driver/Src/stm32u5xx_hal.c ****   SYSCFG->CNSLCKR = (0xFFFFU & Item);  /* non-secure lock item in 16 lowest bits */
 1367              		.loc 1 868 3 view .LVU247
 1368              		.loc 1 868 30 is_stmt 0 view .LVU248
 1369 0000 80B2     		uxth	r0, r0
 1370              	.LVL41:
 1371              		.loc 1 868 19 view .LVU249
 1372 0002 014B     		ldr	r3, .L129
 1373 0004 D860     		str	r0, [r3, #12]
 869:Drivers/STM32U5xx_HAL_Driver/Src/stm32u5xx_hal.c **** 
 870:Drivers/STM32U5xx_HAL_Driver/Src/stm32u5xx_hal.c **** #if defined (__ARM_FEATURE_CMSE) && (__ARM_FEATURE_CMSE == 3U)
 871:Drivers/STM32U5xx_HAL_Driver/Src/stm32u5xx_hal.c ****   /* Privilege secure only locks */
 872:Drivers/STM32U5xx_HAL_Driver/Src/stm32u5xx_hal.c ****   SYSCFG->CSLCKR = ((0xFFFF0000U & Item) >> 16U);  /* Secure-only lock item in 16 highest bits */
 873:Drivers/STM32U5xx_HAL_Driver/Src/stm32u5xx_hal.c **** #endif /* __ARM_FEATURE_CMSE */
 874:Drivers/STM32U5xx_HAL_Driver/Src/stm32u5xx_hal.c **** }
 1374              		.loc 1 874 1 view .LVU250
 1375 0006 7047     		bx	lr
 1376              	.L130:
 1377              		.align	2
 1378              	.L129:
 1379 0008 00040046 		.word	1174406144
 1380              		.cfi_endproc
 1381              	.LFE193:
 1383              		.section	.text.HAL_SYSCFG_GetLock,"ax",%progbits
 1384              		.align	1
 1385              		.global	HAL_SYSCFG_GetLock
 1386              		.syntax unified
 1387              		.thumb
 1388              		.thumb_func
 1390              	HAL_SYSCFG_GetLock:
 1391              	.LVL42:
 1392              	.LFB194:
 875:Drivers/STM32U5xx_HAL_Driver/Src/stm32u5xx_hal.c **** 
 876:Drivers/STM32U5xx_HAL_Driver/Src/stm32u5xx_hal.c **** /**
 877:Drivers/STM32U5xx_HAL_Driver/Src/stm32u5xx_hal.c ****   * @brief  Get the lock state of SYSCFG item.
 878:Drivers/STM32U5xx_HAL_Driver/Src/stm32u5xx_hal.c ****   * @note   Getting lock(s) depends on privilege mode in secure/non-secure code
 879:Drivers/STM32U5xx_HAL_Driver/Src/stm32u5xx_hal.c ****   * @param  pItem pointer to return locked items
 880:Drivers/STM32U5xx_HAL_Driver/Src/stm32u5xx_hal.c ****   *         the return value can be a combination of @ref SYSCFG_Lock_items
 881:Drivers/STM32U5xx_HAL_Driver/Src/stm32u5xx_hal.c ****   * @retval HAL status
 882:Drivers/STM32U5xx_HAL_Driver/Src/stm32u5xx_hal.c ****   */
 883:Drivers/STM32U5xx_HAL_Driver/Src/stm32u5xx_hal.c **** HAL_StatusTypeDef HAL_SYSCFG_GetLock(uint32_t *pItem)
ARM GAS  /tmp/ccepBsJ5.s 			page 41


 884:Drivers/STM32U5xx_HAL_Driver/Src/stm32u5xx_hal.c **** {
 1393              		.loc 1 884 1 is_stmt 1 view -0
 1394              		.cfi_startproc
 1395              		@ args = 0, pretend = 0, frame = 0
 1396              		@ frame_needed = 0, uses_anonymous_args = 0
 1397              		@ link register save eliminated.
 885:Drivers/STM32U5xx_HAL_Driver/Src/stm32u5xx_hal.c ****   uint32_t tmp_lock;
 1398              		.loc 1 885 3 view .LVU252
 886:Drivers/STM32U5xx_HAL_Driver/Src/stm32u5xx_hal.c **** 
 887:Drivers/STM32U5xx_HAL_Driver/Src/stm32u5xx_hal.c ****   /* Check null pointer */
 888:Drivers/STM32U5xx_HAL_Driver/Src/stm32u5xx_hal.c ****   if (pItem == NULL)
 1399              		.loc 1 888 3 view .LVU253
 1400              		.loc 1 888 6 is_stmt 0 view .LVU254
 1401 0000 20B1     		cbz	r0, .L133
 889:Drivers/STM32U5xx_HAL_Driver/Src/stm32u5xx_hal.c ****   {
 890:Drivers/STM32U5xx_HAL_Driver/Src/stm32u5xx_hal.c ****     return HAL_ERROR;
 891:Drivers/STM32U5xx_HAL_Driver/Src/stm32u5xx_hal.c ****   }
 892:Drivers/STM32U5xx_HAL_Driver/Src/stm32u5xx_hal.c **** 
 893:Drivers/STM32U5xx_HAL_Driver/Src/stm32u5xx_hal.c ****   /* Get the non-secure lock state */
 894:Drivers/STM32U5xx_HAL_Driver/Src/stm32u5xx_hal.c ****   tmp_lock = SYSCFG->CNSLCKR;
 1402              		.loc 1 894 3 is_stmt 1 view .LVU255
 1403              		.loc 1 894 12 is_stmt 0 view .LVU256
 1404 0002 034A     		ldr	r2, .L134
 1405 0004 D268     		ldr	r2, [r2, #12]
 1406              	.LVL43:
 895:Drivers/STM32U5xx_HAL_Driver/Src/stm32u5xx_hal.c **** 
 896:Drivers/STM32U5xx_HAL_Driver/Src/stm32u5xx_hal.c ****   /* Get the secure lock state in secure code */
 897:Drivers/STM32U5xx_HAL_Driver/Src/stm32u5xx_hal.c **** #if defined (__ARM_FEATURE_CMSE) && (__ARM_FEATURE_CMSE == 3U)
 898:Drivers/STM32U5xx_HAL_Driver/Src/stm32u5xx_hal.c ****   tmp_lock |= (SYSCFG->CSLCKR << 16U);
 899:Drivers/STM32U5xx_HAL_Driver/Src/stm32u5xx_hal.c **** #endif /* __ARM_FEATURE_CMSE */
 900:Drivers/STM32U5xx_HAL_Driver/Src/stm32u5xx_hal.c **** 
 901:Drivers/STM32U5xx_HAL_Driver/Src/stm32u5xx_hal.c ****   /* Return overall lock status */
 902:Drivers/STM32U5xx_HAL_Driver/Src/stm32u5xx_hal.c ****   *pItem = tmp_lock;
 1407              		.loc 1 902 3 is_stmt 1 view .LVU257
 1408              		.loc 1 902 10 is_stmt 0 view .LVU258
 1409 0006 0260     		str	r2, [r0]
 903:Drivers/STM32U5xx_HAL_Driver/Src/stm32u5xx_hal.c **** 
 904:Drivers/STM32U5xx_HAL_Driver/Src/stm32u5xx_hal.c ****   return HAL_OK;
 1410              		.loc 1 904 3 is_stmt 1 view .LVU259
 1411              		.loc 1 904 10 is_stmt 0 view .LVU260
 1412 0008 0020     		movs	r0, #0
 1413              	.LVL44:
 1414              		.loc 1 904 10 view .LVU261
 1415 000a 7047     		bx	lr
 1416              	.LVL45:
 1417              	.L133:
 890:Drivers/STM32U5xx_HAL_Driver/Src/stm32u5xx_hal.c ****   }
 1418              		.loc 1 890 12 view .LVU262
 1419 000c 0120     		movs	r0, #1
 1420              	.LVL46:
 905:Drivers/STM32U5xx_HAL_Driver/Src/stm32u5xx_hal.c **** }
 1421              		.loc 1 905 1 view .LVU263
 1422 000e 7047     		bx	lr
 1423              	.L135:
 1424              		.align	2
 1425              	.L134:
 1426 0010 00040046 		.word	1174406144
ARM GAS  /tmp/ccepBsJ5.s 			page 42


 1427              		.cfi_endproc
 1428              	.LFE194:
 1430              		.global	uwTickFreq
 1431              		.section	.data.uwTickFreq,"aw"
 1434              	uwTickFreq:
 1435 0000 01       		.byte	1
 1436              		.global	uwTickPrio
 1437              		.section	.data.uwTickPrio,"aw"
 1438              		.align	2
 1441              	uwTickPrio:
 1442 0000 10000000 		.word	16
 1443              		.global	uwTick
 1444              		.section	.bss.uwTick,"aw",%nobits
 1445              		.align	2
 1448              	uwTick:
 1449 0000 00000000 		.space	4
 1450              		.text
 1451              	.Letext0:
 1452              		.file 2 "Drivers/CMSIS/Device/ST/STM32U5xx/Include/stm32u575xx.h"
 1453              		.file 3 "/usr/lib/gcc/arm-none-eabi/13.2.1/include/stdint.h"
 1454              		.file 4 "Drivers/CMSIS/Include/core_cm33.h"
 1455              		.file 5 "Drivers/CMSIS/Device/ST/STM32U5xx/Include/system_stm32u5xx.h"
 1456              		.file 6 "Drivers/STM32U5xx_HAL_Driver/Inc/stm32u5xx_hal_def.h"
 1457              		.file 7 "Drivers/STM32U5xx_HAL_Driver/Inc/stm32u5xx_hal.h"
 1458              		.file 8 "Drivers/STM32U5xx_HAL_Driver/Inc/stm32u5xx_hal_cortex.h"
 1459              		.file 9 "Drivers/STM32U5xx_HAL_Driver/Inc/stm32u5xx_hal_rcc.h"
ARM GAS  /tmp/ccepBsJ5.s 			page 43

